

Microchip MPLAB XC8 Assembler V2.20 build 20200408173844 
                                                                                               Fri Feb 19 13:22:21 2021

Microchip MPLAB XC8 C Compiler v2.20 (Free license) build 20200408173844 Og9 
     1                           	processor	16F628A
     2                           	pagewidth 120
     3                           	opt	flic
     4                           	psect	idataBANK0,global,class=CODE,delta=2,noexec
     5                           	psect	nvCOMMON,global,class=COMMON,space=1,delta=1,noexec
     6                           	psect	cinit,global,class=CODE,merge=1,delta=2
     7                           	psect	bssCOMMON,global,class=COMMON,space=1,delta=1,noexec
     8                           	psect	bssBANK0,global,class=BANK0,space=1,delta=1,noexec
     9                           	psect	dataBANK0,global,class=BANK0,space=1,delta=1,noexec
    10                           	psect	cstackCOMMON,global,class=COMMON,space=1,delta=1,noexec
    11                           	psect	cstackBANK0,global,class=BANK0,space=1,delta=1,noexec
    12                           	psect	maintext,global,class=CODE,split=1,delta=2
    13                           	psect	text1,local,class=CODE,merge=1,delta=2
    14                           	psect	text2,local,class=CODE,merge=1,delta=2
    15                           	psect	text3,local,class=CODE,merge=1,delta=2
    16                           	psect	text4,local,class=CODE,merge=1,delta=2,group=1
    17                           	psect	text5,local,class=CODE,merge=1,delta=2,group=1
    18                           	psect	text6,local,class=CODE,merge=1,delta=2,group=1
    19                           	psect	text7,local,class=CODE,merge=1,delta=2,group=1
    20                           	psect	text8,local,class=CODE,merge=1,delta=2,group=1
    21                           	psect	text9,local,class=CODE,merge=1,delta=2
    22                           	psect	text10,local,class=CODE,merge=1,delta=2
    23                           	psect	text11,local,class=CODE,merge=1,delta=2,group=1
    24                           	psect	text12,local,class=CODE,merge=1,delta=2,group=1
    25                           	psect	text13,local,class=CODE,merge=1,delta=2,group=1
    26                           	psect	text14,local,class=CODE,merge=1,delta=2,group=1
    27                           	psect	text15,local,class=CODE,merge=1,delta=2
    28                           	psect	intentry,global,class=CODE,delta=2
    29                           	psect	text16,local,class=CODE,merge=1,delta=2
    30                           	psect	config,global,abs,ovrld,class=CONFIG,space=4,delta=2,noexec
    31                           	dabs	1,0x7E,2
    32  0000                     
    33                           ; Version 2.20
    34                           ; Generated 09/04/2020 GMT
    35                           ; 
    36                           ; Copyright © 2020, Microchip Technology Inc. and its subsidiaries ("Microchip")
    37                           ; All rights reserved.
    38                           ; 
    39                           ; This software is developed by Microchip Technology Inc. and its subsidiaries ("Microch
      +                          ip").
    40                           ; 
    41                           ; Redistribution and use in source and binary forms, with or without modification, are
    42                           ; permitted provided that the following conditions are met:
    43                           ; 
    44                           ;     1. Redistributions of source code must retain the above copyright notice, this lis
      +                          t of
    45                           ;        conditions and the following disclaimer.
    46                           ; 
    47                           ;     2. Redistributions in binary form must reproduce the above copyright notice, this 
      +                          list
    48                           ;        of conditions and the following disclaimer in the documentation and/or other
    49                           ;        materials provided with the distribution.
    50                           ; 
    51                           ;     3. Microchip's name may not be used to endorse or promote products derived from th
      +                          is
    52                           ;        software without specific prior written permission.
    53                           ; 
    54                           ; THIS SOFTWARE IS PROVIDED BY MICROCHIP "AS IS" AND ANY EXPRESS OR IMPLIED WARRANTIES,
    55                           ; INCLUDING, BUT NOT LIMITED TO, THE IMPLIED WARRANTIES OF MERCHANTABILITY AND FITNESS F
      +                          OR
    56                           ; PURPOSE ARE DISCLAIMED.  IN NO EVENT SHALL MICROCHIP BE LIABLE FOR ANY DIRECT, INDIREC
      +                          T,
    57                           ; INCIDENTAL, SPECIAL, EXEMPLARY, OR CONSEQUENTIAL DAMAGES (INCLUDING BUT NOT LIMITED TO
    58                           ; PROCUREMENT OF SUBSTITUTE GOODS OR SERVICES; LOSS OF USE, DATA OR PROFITS; OR BUSINESS
    59                           ; INTERRUPTION) HOWSOEVER CAUSED AND ON ANY THEORY OF LIABILITY, WHETHER IN CONTRACT, ST
      +                          RICT
    60                           ; LIABILITY, OR TORT (INCLUDING NEGLIGENCE OR OTHERWISE) ARISING IN ANY WAY OUT OF THE U
      +                          SE OF
    61                           ; THIS SOFTWARE, EVEN IF ADVISED OF THE POSSIBILITY OF SUCH DAMAGE.
    62                           ; 
    63                           ; 
    64                           ; Code-generator required, PIC16F628A Definitions
    65                           ; 
    66                           ; SFR Addresses
    67  0000                     	;# 
    68  0001                     	;# 
    69  0002                     	;# 
    70  0003                     	;# 
    71  0004                     	;# 
    72  0005                     	;# 
    73  0006                     	;# 
    74  000A                     	;# 
    75  000B                     	;# 
    76  000C                     	;# 
    77  000E                     	;# 
    78  000E                     	;# 
    79  000F                     	;# 
    80  0010                     	;# 
    81  0011                     	;# 
    82  0012                     	;# 
    83  0015                     	;# 
    84  0015                     	;# 
    85  0016                     	;# 
    86  0017                     	;# 
    87  0018                     	;# 
    88  0019                     	;# 
    89  001A                     	;# 
    90  001F                     	;# 
    91  0081                     	;# 
    92  0085                     	;# 
    93  0086                     	;# 
    94  008C                     	;# 
    95  008E                     	;# 
    96  0092                     	;# 
    97  0098                     	;# 
    98  0099                     	;# 
    99  009A                     	;# 
   100  009B                     	;# 
   101  009C                     	;# 
   102  009D                     	;# 
   103  009F                     	;# 
   104  0000                     	;# 
   105  0001                     	;# 
   106  0002                     	;# 
   107  0003                     	;# 
   108  0004                     	;# 
   109  0005                     	;# 
   110  0006                     	;# 
   111  000A                     	;# 
   112  000B                     	;# 
   113  000C                     	;# 
   114  000E                     	;# 
   115  000E                     	;# 
   116  000F                     	;# 
   117  0010                     	;# 
   118  0011                     	;# 
   119  0012                     	;# 
   120  0015                     	;# 
   121  0015                     	;# 
   122  0016                     	;# 
   123  0017                     	;# 
   124  0018                     	;# 
   125  0019                     	;# 
   126  001A                     	;# 
   127  001F                     	;# 
   128  0081                     	;# 
   129  0085                     	;# 
   130  0086                     	;# 
   131  008C                     	;# 
   132  008E                     	;# 
   133  0092                     	;# 
   134  0098                     	;# 
   135  0099                     	;# 
   136  009A                     	;# 
   137  009B                     	;# 
   138  009C                     	;# 
   139  009D                     	;# 
   140  009F                     	;# 
   141                           
   142                           	psect	idataBANK0
   143  0772                     __pidataBANK0:
   144                           
   145                           ;initializer for _TimerMultiplexacion
   146  0772  3402               	retlw	2
   147  0773  3400               	retlw	0
   148                           
   149                           ;initializer for _TimerBlink
   150  0774  34F4               	retlw	244
   151  0775  3401               	retlw	1
   152                           
   153                           ;initializer for _DigitoActivo
   154  0776  3401               	retlw	1
   155                           
   156                           	psect	nvCOMMON
   157  0079                     __pnvCOMMON:
   158  0079                     _Duty:
   159  0079                     	ds	1
   160  000E                     _TMR1	set	14
   161  0005                     _PORTA	set	5
   162  0005                     _PORTAbits	set	5
   163  0006                     _PORTBbits	set	6
   164  000B                     _INTCONbits	set	11
   165  0010                     _T1CONbits	set	16
   166  001F                     _CMCON	set	31
   167  0059                     _INTF	set	89
   168  0060                     _TMR1IF	set	96
   169  0080                     _TMR1ON	set	128
   170  0081                     _TMR1CS	set	129
   171  0085                     _TRISAbits	set	133
   172  0086                     _TRISBbits	set	134
   173  0081                     _OPTION_REGbits	set	129
   174  0460                     _TMR1IE	set	1120
   175                           
   176                           	psect	cinit
   177  000F                     start_initialization:	
   178                           ; #config settings
   179                           
   180  000F                     __initialization:
   181                           
   182                           ; Initialize objects allocated to BANK0
   183  000F  2772               	fcall	__pidataBANK0	;fetch initializer
   184  0010  00DE               	movwf	__pdataBANK0& (0+127)
   185  0011  2773               	fcall	__pidataBANK0+1	;fetch initializer
   186  0012  00DF               	movwf	(__pdataBANK0+1)& (0+127)
   187  0013  2774               	fcall	__pidataBANK0+2	;fetch initializer
   188  0014  00E0               	movwf	(__pdataBANK0+2)& (0+127)
   189  0015  2775               	fcall	__pidataBANK0+3	;fetch initializer
   190  0016  00E1               	movwf	(__pdataBANK0+3)& (0+127)
   191  0017  2776               	fcall	__pidataBANK0+4	;fetch initializer
   192  0018  00E2               	movwf	(__pdataBANK0+4)& (0+127)
   193                           
   194                           ; Clear objects allocated to BANK0
   195  0019  01E3               	clrf	__pbssBANK0& (0+127)
   196                           
   197                           ; Clear objects allocated to COMMON
   198  001A  01F5               	clrf	__pbssCOMMON& (0+127)
   199  001B  01F6               	clrf	(__pbssCOMMON+1)& (0+127)
   200  001C  01F7               	clrf	(__pbssCOMMON+2)& (0+127)
   201  001D  01F8               	clrf	(__pbssCOMMON+3)& (0+127)
   202  001E                     end_of_initialization:	
   203                           ;End of C runtime variable initialization code
   204                           
   205  001E                     __end_of__initialization:
   206  001E  0183               	clrf	3
   207  001F  2F69               	ljmp	_main	;jump to C main() function
   208                           
   209                           	psect	bssCOMMON
   210  0075                     __pbssCOMMON:
   211  0075                     _TimerSalTriac:
   212  0075                     	ds	2
   213  0077                     _Disp_E:
   214  0077                     	ds	1
   215  0078                     _SalTriac_E:
   216  0078                     	ds	1
   217                           
   218                           	psect	bssBANK0
   219  0063                     __pbssBANK0:
   220  0063                     _ValorTimerTriac:
   221  0063                     	ds	1
   222                           
   223                           	psect	dataBANK0
   224  005E                     __pdataBANK0:
   225  005E                     _TimerMultiplexacion:
   226  005E                     	ds	2
   227  0060                     _TimerBlink:
   228  0060                     	ds	2
   229  0062                     _DigitoActivo:
   230  0062                     	ds	1
   231                           
   232                           	psect	cstackCOMMON
   233  0070                     __pcstackCOMMON:
   234  0070                     ?_Perifericos_Init:
   235  0070                     ?_InOutPines_Init:	
   236                           ; 1 bytes @ 0x0
   237                           
   238  0070                     ?_Control:	
   239                           ; 1 bytes @ 0x0
   240                           
   241  0070                     ?_CargaDigitos:	
   242                           ; 1 bytes @ 0x0
   243                           
   244  0070                     ?_Antirrebote:	
   245                           ; 1 bytes @ 0x0
   246                           
   247  0070                     ?_TimerReady:	
   248                           ; 1 bytes @ 0x0
   249                           
   250  0070                     ??_TimerReady:	
   251                           ; 1 bytes @ 0x0
   252                           
   253  0070                     ?_main:	
   254                           ; 1 bytes @ 0x0
   255                           
   256  0070                     ?_ISR:	
   257                           ; 1 bytes @ 0x0
   258                           
   259  0070                     ??_ISR:	
   260                           ; 1 bytes @ 0x0
   261                           
   262                           
   263                           ; 1 bytes @ 0x0
   264  0070                     	ds	5
   265                           
   266                           	psect	cstackBANK0
   267  0020                     __pcstackBANK0:
   268  0020                     ??_Perifericos_Init:
   269  0020                     ??_InOutPines_Init:	
   270                           ; 1 bytes @ 0x0
   271                           
   272  0020                     ??_Antirrebote:	
   273                           ; 1 bytes @ 0x0
   274                           
   275  0020                     ?___bmul:	
   276                           ; 1 bytes @ 0x0
   277                           
   278  0020                     ?___lbdiv:	
   279                           ; 1 bytes @ 0x0
   280                           
   281  0020                     ?___wmul:	
   282                           ; 1 bytes @ 0x0
   283                           
   284  0020                     ?___fladd:	
   285                           ; 2 bytes @ 0x0
   286                           
   287  0020                     ?___xxtofl:	
   288                           ; 4 bytes @ 0x0
   289                           
   290  0020                     ___bmul@multiplicand:	
   291                           ; 4 bytes @ 0x0
   292                           
   293  0020                     ___lbdiv@divisor:	
   294                           ; 1 bytes @ 0x0
   295                           
   296  0020                     ___wmul@multiplier:	
   297                           ; 1 bytes @ 0x0
   298                           
   299  0020                     ___fladd@b:	
   300                           ; 2 bytes @ 0x0
   301                           
   302  0020                     ___xxtofl@val:	
   303                           ; 4 bytes @ 0x0
   304                           
   305                           
   306                           ; 4 bytes @ 0x0
   307  0020                     	ds	1
   308  0021                     ??___bmul:
   309  0021                     ??___lbdiv:	
   310                           ; 1 bytes @ 0x1
   311                           
   312  0021                     ___bmul@product:	
   313                           ; 1 bytes @ 0x1
   314                           
   315  0021                     ___lbdiv@dividend:	
   316                           ; 1 bytes @ 0x1
   317                           
   318                           
   319                           ; 1 bytes @ 0x1
   320  0021                     	ds	1
   321  0022                     ___bmul@multiplier:
   322  0022                     ___lbdiv@counter:	
   323                           ; 1 bytes @ 0x2
   324                           
   325  0022                     ___wmul@multiplicand:	
   326                           ; 1 bytes @ 0x2
   327                           
   328                           
   329                           ; 2 bytes @ 0x2
   330  0022                     	ds	1
   331  0023                     ___lbdiv@quotient:
   332                           
   333                           ; 1 bytes @ 0x3
   334  0023                     	ds	1
   335  0024                     ??___wmul:
   336  0024                     ??___xxtofl:	
   337                           ; 1 bytes @ 0x4
   338                           
   339  0024                     ___wmul@product:	
   340                           ; 1 bytes @ 0x4
   341                           
   342  0024                     ___fladd@a:	
   343                           ; 2 bytes @ 0x4
   344                           
   345                           
   346                           ; 4 bytes @ 0x4
   347  0024                     	ds	2
   348  0026                     ?___awdiv:
   349  0026                     ___awdiv@divisor:	
   350                           ; 2 bytes @ 0x6
   351                           
   352                           
   353                           ; 2 bytes @ 0x6
   354  0026                     	ds	2
   355  0028                     ??___fladd:
   356  0028                     ___xxtofl@sign:	
   357                           ; 1 bytes @ 0x8
   358                           
   359  0028                     ___awdiv@dividend:	
   360                           ; 1 bytes @ 0x8
   361                           
   362                           
   363                           ; 2 bytes @ 0x8
   364  0028                     	ds	1
   365  0029                     ___xxtofl@exp:
   366                           
   367                           ; 1 bytes @ 0x9
   368  0029                     	ds	1
   369  002A                     ??___awdiv:
   370  002A                     ___awdiv@counter:	
   371                           ; 1 bytes @ 0xA
   372                           
   373  002A                     ___xxtofl@arg:	
   374                           ; 1 bytes @ 0xA
   375                           
   376                           
   377                           ; 4 bytes @ 0xA
   378  002A                     	ds	1
   379  002B                     ___awdiv@sign:
   380                           
   381                           ; 1 bytes @ 0xB
   382  002B                     	ds	1
   383  002C                     ___awdiv@quotient:
   384                           
   385                           ; 2 bytes @ 0xC
   386  002C                     	ds	2
   387  002E                     ??_CargaDigitos:
   388  002E                     ?___fldiv:	
   389                           ; 1 bytes @ 0xE
   390                           
   391  002E                     ___fldiv@a:	
   392                           ; 4 bytes @ 0xE
   393                           
   394                           
   395                           ; 4 bytes @ 0xE
   396  002E                     	ds	2
   397  0030                     CargaDigitos@unidad:
   398  0030                     ___fladd@signs:	
   399                           ; 1 bytes @ 0x10
   400                           
   401                           
   402                           ; 1 bytes @ 0x10
   403  0030                     	ds	1
   404  0031                     CargaDigitos@decena:
   405  0031                     ___fladd@aexp:	
   406                           ; 1 bytes @ 0x11
   407                           
   408                           
   409                           ; 1 bytes @ 0x11
   410  0031                     	ds	1
   411  0032                     CargaDigitos@centena:
   412  0032                     ___fladd@bexp:	
   413                           ; 1 bytes @ 0x12
   414                           
   415  0032                     ___fldiv@b:	
   416                           ; 1 bytes @ 0x12
   417                           
   418                           
   419                           ; 4 bytes @ 0x12
   420  0032                     	ds	1
   421  0033                     ___fladd@grs:
   422                           
   423                           ; 1 bytes @ 0x13
   424  0033                     	ds	3
   425  0036                     ??___fldiv:
   426                           
   427                           ; 1 bytes @ 0x16
   428  0036                     	ds	5
   429  003B                     ___fldiv@rem:
   430                           
   431                           ; 4 bytes @ 0x1B
   432  003B                     	ds	4
   433  003F                     ___fldiv@sign:
   434                           
   435                           ; 1 bytes @ 0x1F
   436  003F                     	ds	1
   437  0040                     ___fldiv@new_exp:
   438                           
   439                           ; 2 bytes @ 0x20
   440  0040                     	ds	2
   441  0042                     ___fldiv@grs:
   442                           
   443                           ; 4 bytes @ 0x22
   444  0042                     	ds	4
   445  0046                     ___fldiv@bexp:
   446                           
   447                           ; 1 bytes @ 0x26
   448  0046                     	ds	1
   449  0047                     ___fldiv@aexp:
   450                           
   451                           ; 1 bytes @ 0x27
   452  0047                     	ds	1
   453  0048                     ?___flsub:
   454  0048                     ___flsub@a:	
   455                           ; 4 bytes @ 0x28
   456                           
   457                           
   458                           ; 4 bytes @ 0x28
   459  0048                     	ds	4
   460  004C                     ___flsub@b:
   461                           
   462                           ; 4 bytes @ 0x2C
   463  004C                     	ds	4
   464  0050                     ??___flsub:
   465  0050                     ?___fltol:	
   466                           ; 1 bytes @ 0x30
   467                           
   468  0050                     ___fltol@f1:	
   469                           ; 4 bytes @ 0x30
   470                           
   471                           
   472                           ; 4 bytes @ 0x30
   473  0050                     	ds	4
   474  0054                     ??___fltol:
   475                           
   476                           ; 1 bytes @ 0x34
   477  0054                     	ds	4
   478  0058                     ___fltol@sign1:
   479                           
   480                           ; 1 bytes @ 0x38
   481  0058                     	ds	1
   482  0059                     ___fltol@exp1:
   483                           
   484                           ; 1 bytes @ 0x39
   485  0059                     	ds	1
   486  005A                     ??_Control:
   487                           
   488                           ; 1 bytes @ 0x3A
   489  005A                     	ds	4
   490  005E                     ??_main:
   491                           
   492                           	psect	maintext
   493  0769                     __pmaintext:	
   494                           ; 1 bytes @ 0x3E
   495 ;;
   496 ;;Main: autosize = 0, tempsize = 0, incstack = 0, save=0
   497 ;;
   498 ;; *************** function _main *****************
   499 ;; Defined at:
   500 ;;		line 85 in file "Main.c"
   501 ;; Parameters:    Size  Location     Type
   502 ;;		None
   503 ;; Auto vars:     Size  Location     Type
   504 ;;		None
   505 ;; Return value:  Size  Location     Type
   506 ;;                  1    wreg      void 
   507 ;; Registers used:
   508 ;;		wreg, fsr0l, fsr0h, status,2, status,0, btemp+1, pclath, cstack
   509 ;; Tracked objects:
   510 ;;		On entry : B00/0
   511 ;;		On exit  : 300/0
   512 ;;		Unchanged: 0/0
   513 ;; Data sizes:     COMMON   BANK0   BANK1   BANK2
   514 ;;      Params:         0       0       0       0
   515 ;;      Locals:         0       0       0       0
   516 ;;      Temps:          0       0       0       0
   517 ;;      Totals:         0       0       0       0
   518 ;;Total ram usage:        0 bytes
   519 ;; Hardware stack levels required when called:    5
   520 ;; This function calls:
   521 ;;		_CargaDigitos
   522 ;;		_Control
   523 ;;		_InOutPines_Init
   524 ;;		_Perifericos_Init
   525 ;; This function is called by:
   526 ;;		Startup code after reset
   527 ;; This function uses a non-reentrant model
   528 ;;
   529                           
   530                           
   531                           ;psect for function _main
   532  0769                     _main:
   533                           
   534                           ;Main.c: 88:     Perifericos_Init();
   535                           
   536                           ;incstack = 0
   537                           ; Regs used in _main: [wreg-fsr0h+status,2+status,0+btemp+1+pclath+cstack]
   538  0769  2745               	fcall	_Perifericos_Init
   539                           
   540                           ;Main.c: 89:     InOutPines_Init();
   541  076A  272D               	fcall	_InOutPines_Init
   542                           
   543                           ;Main.c: 91:     Duty = 10;
   544  076B  300A               	movlw	10
   545  076C  00FF               	movwf	127
   546  076D  087F               	movf	127,w
   547  076E  00F9               	movwf	_Duty
   548  076F                     l2552:
   549                           
   550                           ;Main.c: 95:     {;Main.c: 96:         Control();
   551  076F  2507               	fcall	_Control
   552                           
   553                           ;Main.c: 97:         CargaDigitos();
   554  0770  2491               	fcall	_CargaDigitos
   555  0771  2F6F               	goto	l2552
   556  0772                     __end_of_main:
   557                           
   558                           	psect	text1
   559  0745                     __ptext1:	
   560 ;; *************** function _Perifericos_Init *****************
   561 ;; Defined at:
   562 ;;		line 101 in file "Main.c"
   563 ;; Parameters:    Size  Location     Type
   564 ;;		None
   565 ;; Auto vars:     Size  Location     Type
   566 ;;		None
   567 ;; Return value:  Size  Location     Type
   568 ;;                  1    wreg      void 
   569 ;; Registers used:
   570 ;;		wreg, status,2, status,0
   571 ;; Tracked objects:
   572 ;;		On entry : B00/0
   573 ;;		On exit  : B00/0
   574 ;;		Unchanged: 800/0
   575 ;; Data sizes:     COMMON   BANK0   BANK1   BANK2
   576 ;;      Params:         0       0       0       0
   577 ;;      Locals:         0       0       0       0
   578 ;;      Temps:          0       0       0       0
   579 ;;      Totals:         0       0       0       0
   580 ;;Total ram usage:        0 bytes
   581 ;; Hardware stack levels used:    1
   582 ;; Hardware stack levels required when called:    2
   583 ;; This function calls:
   584 ;;		Nothing
   585 ;; This function is called by:
   586 ;;		_main
   587 ;; This function uses a non-reentrant model
   588 ;;
   589                           
   590                           
   591                           ;psect for function _Perifericos_Init
   592  0745                     _Perifericos_Init:
   593                           
   594                           ;Main.c: 103:     CMCON = 0x07;
   595                           
   596                           ;incstack = 0
   597                           ; Regs used in _Perifericos_Init: [wreg+status,2+status,0]
   598  0745  3007               	movlw	7
   599  0746  009F               	movwf	31	;volatile
   600                           
   601                           ;Main.c: 106:     T1CONbits.T1CKPS = 0b11;
   602  0747  3030               	movlw	48
   603  0748  0490               	iorwf	16,f	;volatile
   604                           
   605                           ;Main.c: 107:     TMR1CS = 0;
   606  0749  1090               	bcf	16,1	;volatile
   607                           
   608                           ;Main.c: 108:     TMR1ON = 1;
   609  074A  1410               	bsf	16,0	;volatile
   610                           
   611                           ;Main.c: 109:     TMR1 = 65411;
   612  074B  30FF               	movlw	255
   613  074C  008F               	movwf	15	;volatile
   614  074D  3083               	movlw	131
   615  074E  008E               	movwf	14	;volatile
   616                           
   617                           ;Main.c: 112:     INTCONbits.PEIE = 1;
   618  074F  170B               	bsf	11,6	;volatile
   619                           
   620                           ;Main.c: 114:     INTCONbits.INTE = 1;
   621  0750  160B               	bsf	11,4	;volatile
   622                           
   623                           ;Main.c: 115:     INTCONbits.INTF = 0;
   624  0751  108B               	bcf	11,1	;volatile
   625                           
   626                           ;Main.c: 116:     OPTION_REGbits.INTEDG = 1;
   627  0752  1683               	bsf	3,5	;RP0=1, select bank1
   628  0753  1701               	bsf	1,6	;volatile
   629                           
   630                           ;Main.c: 118:     TMR1IE = 1;
   631  0754  140C               	bsf	12,0	;volatile
   632                           
   633                           ;Main.c: 119:     TMR1IF = 0;
   634  0755  1283               	bcf	3,5	;RP0=0, select bank0
   635  0756  100C               	bcf	12,0	;volatile
   636  0757  0008               	return
   637  0758                     __end_of_Perifericos_Init:
   638                           
   639                           	psect	text2
   640  072D                     __ptext2:	
   641 ;; *************** function _InOutPines_Init *****************
   642 ;; Defined at:
   643 ;;		line 123 in file "Main.c"
   644 ;; Parameters:    Size  Location     Type
   645 ;;		None
   646 ;; Auto vars:     Size  Location     Type
   647 ;;		None
   648 ;; Return value:  Size  Location     Type
   649 ;;                  1    wreg      void 
   650 ;; Registers used:
   651 ;;		None
   652 ;; Tracked objects:
   653 ;;		On entry : B00/0
   654 ;;		On exit  : B00/0
   655 ;;		Unchanged: 800/0
   656 ;; Data sizes:     COMMON   BANK0   BANK1   BANK2
   657 ;;      Params:         0       0       0       0
   658 ;;      Locals:         0       0       0       0
   659 ;;      Temps:          0       0       0       0
   660 ;;      Totals:         0       0       0       0
   661 ;;Total ram usage:        0 bytes
   662 ;; Hardware stack levels used:    1
   663 ;; Hardware stack levels required when called:    2
   664 ;; This function calls:
   665 ;;		Nothing
   666 ;; This function is called by:
   667 ;;		_main
   668 ;; This function uses a non-reentrant model
   669 ;;
   670                           
   671                           
   672                           ;psect for function _InOutPines_Init
   673  072D                     _InOutPines_Init:
   674                           
   675                           ;Main.c: 126:     TRISBbits.TRISB1 = 0;
   676                           
   677                           ;incstack = 0
   678                           ; Regs used in _InOutPines_Init: []
   679  072D  1683               	bsf	3,5	;RP0=1, select bank1
   680  072E  1086               	bcf	6,1	;volatile
   681                           
   682                           ;Main.c: 127:     TRISBbits.TRISB3 = 1;
   683  072F  1586               	bsf	6,3	;volatile
   684                           
   685                           ;Main.c: 128:     TRISBbits.TRISB2 = 1;
   686  0730  1506               	bsf	6,2	;volatile
   687                           
   688                           ;Main.c: 129:     TRISBbits.TRISB4 = 1;
   689  0731  1606               	bsf	6,4	;volatile
   690                           
   691                           ;Main.c: 130:     TRISAbits.TRISA7 = 0;
   692  0732  1385               	bcf	5,7	;volatile
   693                           
   694                           ;Main.c: 131:     TRISAbits.TRISA0 = 0;
   695  0733  1005               	bcf	5,0	;volatile
   696                           
   697                           ;Main.c: 132:     TRISAbits.TRISA1 = 0;
   698  0734  1085               	bcf	5,1	;volatile
   699                           
   700                           ;Main.c: 133:     TRISAbits.TRISA2 = 0;
   701  0735  1105               	bcf	5,2	;volatile
   702                           
   703                           ;Main.c: 134:     TRISAbits.TRISA3 = 0;
   704  0736  1185               	bcf	5,3	;volatile
   705                           
   706                           ;Main.c: 135:     TRISBbits.TRISB5 = 0;
   707  0737  1286               	bcf	6,5	;volatile
   708                           
   709                           ;Main.c: 136:     TRISBbits.TRISB6 = 0;
   710  0738  1306               	bcf	6,6	;volatile
   711                           
   712                           ;Main.c: 137:     TRISBbits.TRISB7 = 0;
   713  0739  1386               	bcf	6,7	;volatile
   714                           
   715                           ;Main.c: 140:     PORTBbits.RB1 = 0;
   716  073A  1283               	bcf	3,5	;RP0=0, select bank0
   717  073B  1086               	bcf	6,1	;volatile
   718                           
   719                           ;Main.c: 141:     PORTAbits.RA7 = 0;
   720  073C  1385               	bcf	5,7	;volatile
   721                           
   722                           ;Main.c: 142:     PORTAbits.RA0 = 0;
   723  073D  1005               	bcf	5,0	;volatile
   724                           
   725                           ;Main.c: 143:     PORTAbits.RA1 = 0;
   726  073E  1085               	bcf	5,1	;volatile
   727                           
   728                           ;Main.c: 144:     PORTAbits.RA2 = 0;
   729  073F  1105               	bcf	5,2	;volatile
   730                           
   731                           ;Main.c: 145:     PORTAbits.RA3 = 0;
   732  0740  1185               	bcf	5,3	;volatile
   733                           
   734                           ;Main.c: 146:     PORTBbits.RB5 = 0;
   735  0741  1286               	bcf	6,5	;volatile
   736                           
   737                           ;Main.c: 147:     PORTBbits.RB6 = 0;
   738  0742  1306               	bcf	6,6	;volatile
   739                           
   740                           ;Main.c: 148:     PORTBbits.RB7 = 0;
   741  0743  1386               	bcf	6,7	;volatile
   742                           
   743                           ;Main.c: 150:     return;
   744  0744  0008               	return
   745  0745                     __end_of_InOutPines_Init:
   746                           
   747                           	psect	text3
   748  0507                     __ptext3:	
   749 ;; *************** function _Control *****************
   750 ;; Defined at:
   751 ;;		line 152 in file "Main.c"
   752 ;; Parameters:    Size  Location     Type
   753 ;;		None
   754 ;; Auto vars:     Size  Location     Type
   755 ;;		None
   756 ;; Return value:  Size  Location     Type
   757 ;;                  1    wreg      void 
   758 ;; Registers used:
   759 ;;		wreg, status,2, status,0, btemp+1, pclath, cstack
   760 ;; Tracked objects:
   761 ;;		On entry : 300/0
   762 ;;		On exit  : 300/0
   763 ;;		Unchanged: 0/0
   764 ;; Data sizes:     COMMON   BANK0   BANK1   BANK2
   765 ;;      Params:         0       0       0       0
   766 ;;      Locals:         0       0       0       0
   767 ;;      Temps:          0       4       0       0
   768 ;;      Totals:         0       4       0       0
   769 ;;Total ram usage:        4 bytes
   770 ;; Hardware stack levels used:    1
   771 ;; Hardware stack levels required when called:    4
   772 ;; This function calls:
   773 ;;		_Antirrebote
   774 ;;		___fldiv
   775 ;;		___flsub
   776 ;;		___fltol
   777 ;;		___xxtofl
   778 ;; This function is called by:
   779 ;;		_main
   780 ;; This function uses a non-reentrant model
   781 ;;
   782                           
   783                           
   784                           ;psect for function _Control
   785  0507                     _Control:
   786                           
   787                           ;Main.c: 155:     if(PORTBbits.RB2 && Duty < 100) Duty+=10,Antirrebote();
   788                           
   789                           ;incstack = 0
   790                           ; Regs used in _Control: [wreg+status,2+status,0+btemp+1+pclath+cstack]
   791  0507  1D06               	btfss	6,2	;volatile
   792  0508  2D12               	goto	l77
   793  0509  3064               	movlw	100
   794  050A  0279               	subwf	_Duty,w
   795  050B  1803               	skipnc
   796  050C  2D12               	goto	l77
   797  050D  300A               	movlw	10
   798  050E  00FF               	movwf	127
   799  050F  087F               	movf	127,w
   800  0510  07F9               	addwf	_Duty,f
   801  0511  2D26               	goto	l2504
   802  0512                     l77:	
   803                           ;Main.c: 156:     else if(PORTBbits.RB4 && Duty > 10) Duty-=10,Antirrebote();
   804                           
   805  0512  1E06               	btfss	6,4	;volatile
   806  0513  2D1B               	goto	l79
   807  0514  300B               	movlw	11
   808  0515  0279               	subwf	_Duty,w
   809  0516  1C03               	skipc
   810  0517  2D1B               	goto	l79
   811  0518  300A               	movlw	10
   812  0519  02F9               	subwf	_Duty,f
   813  051A  2D26               	goto	l2504
   814  051B                     l79:	
   815                           ;Main.c: 157:     else if(PORTBbits.RB3) Disp_E=!Disp_E,Antirrebote();
   816                           
   817  051B  1D86               	btfss	6,3	;volatile
   818  051C  2D27               	goto	l2516
   819  051D  0877               	movf	_Disp_E,w
   820  051E  1D03               	btfss	3,2
   821  051F  2D22               	goto	u3770
   822  0520  3001               	movlw	1
   823  0521  2D23               	goto	u3780
   824  0522                     u3770:
   825  0522  3000               	movlw	0
   826  0523                     u3780:
   827  0523  00FF               	movwf	127
   828  0524  087F               	movf	127,w
   829  0525  00F7               	movwf	_Disp_E
   830  0526                     l2504:
   831  0526  26F1               	fcall	_Antirrebote
   832  0527                     l2516:
   833                           
   834                           ;Main.c: 161:     if(Disp_E)
   835  0527  0877               	movf	_Disp_E,w
   836  0528  1903               	btfsc	3,2
   837  0529  2D2C               	goto	l82
   838                           
   839                           ;Main.c: 162:         INTCONbits.GIE = 1;
   840  052A  178B               	bsf	11,7	;volatile
   841  052B  2D33               	goto	l2522
   842  052C                     l82:	
   843                           ;Main.c: 163:     else
   844                           
   845                           
   846                           ;Main.c: 164:     {;Main.c: 165:         INTCONbits.GIE = 0;
   847  052C  138B               	bcf	11,7	;volatile
   848                           
   849                           ;Main.c: 166:         PORTBbits.RB1 = 0;
   850  052D  1086               	bcf	6,1	;volatile
   851                           
   852                           ;Main.c: 167:         PORTAbits.RA7 = 0;
   853  052E  1385               	bcf	5,7	;volatile
   854                           
   855                           ;Main.c: 168:         Duty = 10;
   856  052F  300A               	movlw	10
   857  0530  00FF               	movwf	127
   858  0531  087F               	movf	127,w
   859  0532  00F9               	movwf	_Duty
   860  0533                     l2522:
   861                           
   862                           ;Main.c: 173:     ValorTimerTriac = (10 - (Duty/10.0));
   863  0533  3041               	movlw	65
   864  0534  00CF               	movwf	___flsub@b+3
   865  0535  3020               	movlw	32
   866  0536  00CE               	movwf	___flsub@b+2
   867  0537  3000               	movlw	0
   868  0538  00CD               	movwf	___flsub@b+1
   869  0539  3000               	movlw	0
   870  053A  00CC               	movwf	___flsub@b
   871  053B  0879               	movf	_Duty,w
   872  053C  00DA               	movwf	??_Control
   873  053D  01DB               	clrf	??_Control+1
   874  053E  01DC               	clrf	??_Control+2
   875  053F  01DD               	clrf	??_Control+3
   876  0540  085D               	movf	??_Control+3,w
   877  0541  00A3               	movwf	___xxtofl@val+3
   878  0542  085C               	movf	??_Control+2,w
   879  0543  00A2               	movwf	___xxtofl@val+2
   880  0544  085B               	movf	??_Control+1,w
   881  0545  00A1               	movwf	___xxtofl@val+1
   882  0546  085A               	movf	??_Control,w
   883  0547  00A0               	movwf	___xxtofl@val
   884  0548  3001               	movlw	1
   885  0549  23EE               	fcall	___xxtofl
   886  054A  0823               	movf	?___xxtofl+3,w
   887  054B  00B5               	movwf	___fldiv@b+3
   888  054C  0822               	movf	?___xxtofl+2,w
   889  054D  00B4               	movwf	___fldiv@b+2
   890  054E  0821               	movf	?___xxtofl+1,w
   891  054F  00B3               	movwf	___fldiv@b+1
   892  0550  0820               	movf	?___xxtofl,w
   893  0551  00B2               	movwf	___fldiv@b
   894  0552  3041               	movlw	65
   895  0553  00B1               	movwf	___fldiv@a+3
   896  0554  3020               	movlw	32
   897  0555  00B0               	movwf	___fldiv@a+2
   898  0556  3000               	movlw	0
   899  0557  00AF               	movwf	___fldiv@a+1
   900  0558  3000               	movlw	0
   901  0559  00AE               	movwf	___fldiv@a
   902  055A  224D               	fcall	___fldiv
   903  055B  0831               	movf	?___fldiv+3,w
   904  055C  00CB               	movwf	___flsub@a+3
   905  055D  0830               	movf	?___fldiv+2,w
   906  055E  00CA               	movwf	___flsub@a+2
   907  055F  082F               	movf	?___fldiv+1,w
   908  0560  00C9               	movwf	___flsub@a+1
   909  0561  082E               	movf	?___fldiv,w
   910  0562  00C8               	movwf	___flsub@a
   911  0563  2711               	fcall	___flsub
   912  0564  084B               	movf	?___flsub+3,w
   913  0565  00D3               	movwf	___fltol@f1+3
   914  0566  084A               	movf	?___flsub+2,w
   915  0567  00D2               	movwf	___fltol@f1+2
   916  0568  0849               	movf	?___flsub+1,w
   917  0569  00D1               	movwf	___fltol@f1+1
   918  056A  0848               	movf	?___flsub,w
   919  056B  00D0               	movwf	___fltol@f1
   920  056C  2572               	fcall	___fltol
   921  056D  0850               	movf	?___fltol,w
   922  056E  00FF               	movwf	127
   923  056F  087F               	movf	127,w
   924  0570  00E3               	movwf	_ValorTimerTriac
   925  0571  0008               	return
   926  0572                     __end_of_Control:
   927                           
   928                           	psect	text4
   929  03EE                     __ptext4:	
   930 ;; *************** function ___xxtofl *****************
   931 ;; Defined at:
   932 ;;		line 10 in file "C:\Program Files (x86)\Microchip\xc8\pic\sources\c90\common\xxtofl.c"
   933 ;; Parameters:    Size  Location     Type
   934 ;;  sign            1    wreg     unsigned char 
   935 ;;  val             4    0[BANK0 ] long 
   936 ;; Auto vars:     Size  Location     Type
   937 ;;  sign            1    8[BANK0 ] unsigned char 
   938 ;;  arg             4   10[BANK0 ] unsigned long 
   939 ;;  exp             1    9[BANK0 ] unsigned char 
   940 ;; Return value:  Size  Location     Type
   941 ;;                  4    0[BANK0 ] unsigned char 
   942 ;; Registers used:
   943 ;;		wreg, status,2, status,0, btemp+1
   944 ;; Tracked objects:
   945 ;;		On entry : 300/0
   946 ;;		On exit  : 300/0
   947 ;;		Unchanged: 0/0
   948 ;; Data sizes:     COMMON   BANK0   BANK1   BANK2
   949 ;;      Params:         0       4       0       0
   950 ;;      Locals:         0       6       0       0
   951 ;;      Temps:          0       4       0       0
   952 ;;      Totals:         0      14       0       0
   953 ;;Total ram usage:       14 bytes
   954 ;; Hardware stack levels used:    1
   955 ;; Hardware stack levels required when called:    2
   956 ;; This function calls:
   957 ;;		Nothing
   958 ;; This function is called by:
   959 ;;		_Control
   960 ;; This function uses a non-reentrant model
   961 ;;
   962                           
   963                           
   964                           ;psect for function ___xxtofl
   965  03EE                     ___xxtofl:
   966                           
   967                           ;incstack = 0
   968                           ; Regs used in ___xxtofl: [wreg+status,2+status,0+btemp+1]
   969                           ;___xxtofl@sign stored from wreg
   970  03EE  00A8               	movwf	___xxtofl@sign
   971  03EF  0828               	movf	___xxtofl@sign,w
   972  03F0  1D03               	btfss	3,2
   973  03F1  1FA3               	btfss	___xxtofl@val+3,7
   974  03F2  2C03               	goto	l2430
   975  03F3  0920               	comf	___xxtofl@val,w
   976  03F4  00AA               	movwf	___xxtofl@arg
   977  03F5  0921               	comf	___xxtofl@val+1,w
   978  03F6  00AB               	movwf	___xxtofl@arg+1
   979  03F7  0922               	comf	___xxtofl@val+2,w
   980  03F8  00AC               	movwf	___xxtofl@arg+2
   981  03F9  0923               	comf	___xxtofl@val+3,w
   982  03FA  00AD               	movwf	___xxtofl@arg+3
   983  03FB  0AAA               	incf	___xxtofl@arg,f
   984  03FC  1903               	skipnz
   985  03FD  0AAB               	incf	___xxtofl@arg+1,f
   986  03FE  1903               	skipnz
   987  03FF  0AAC               	incf	___xxtofl@arg+2,f
   988  0400  1903               	skipnz
   989  0401  0AAD               	incf	___xxtofl@arg+3,f
   990  0402  2C0B               	goto	l639
   991  0403                     l2430:
   992  0403  0823               	movf	___xxtofl@val+3,w
   993  0404  00AD               	movwf	___xxtofl@arg+3
   994  0405  0822               	movf	___xxtofl@val+2,w
   995  0406  00AC               	movwf	___xxtofl@arg+2
   996  0407  0821               	movf	___xxtofl@val+1,w
   997  0408  00AB               	movwf	___xxtofl@arg+1
   998  0409  0820               	movf	___xxtofl@val,w
   999  040A  00AA               	movwf	___xxtofl@arg
  1000  040B                     l639:
  1001  040B  0823               	movf	___xxtofl@val+3,w
  1002  040C  0422               	iorwf	___xxtofl@val+2,w
  1003  040D  0421               	iorwf	___xxtofl@val+1,w
  1004  040E  0420               	iorwf	___xxtofl@val,w
  1005  040F  1D03               	skipz
  1006  0410  2C1A               	goto	l2436
  1007  0411  3000               	movlw	0
  1008  0412  00A3               	movwf	?___xxtofl+3
  1009  0413  3000               	movlw	0
  1010  0414  00A2               	movwf	?___xxtofl+2
  1011  0415  3000               	movlw	0
  1012  0416  00A1               	movwf	?___xxtofl+1
  1013  0417  3000               	movlw	0
  1014  0418  00A0               	movwf	?___xxtofl
  1015  0419  0008               	return
  1016  041A                     l2436:
  1017  041A  3096               	movlw	150
  1018  041B  00FF               	movwf	127
  1019  041C  087F               	movf	127,w
  1020  041D  00A9               	movwf	___xxtofl@exp
  1021  041E                     l2442:
  1022  041E  30FE               	movlw	254
  1023  041F  052D               	andwf	___xxtofl@arg+3,w
  1024  0420  1903               	btfsc	3,2
  1025  0421  2C4B               	goto	l2450
  1026  0422  3001               	movlw	1
  1027  0423  00FF               	movwf	127
  1028  0424  087F               	movf	127,w
  1029  0425  07A9               	addwf	___xxtofl@exp,f
  1030  0426  3001               	movlw	1
  1031  0427                     u3615:
  1032  0427  1003               	clrc
  1033  0428  0CAD               	rrf	___xxtofl@arg+3,f
  1034  0429  0CAC               	rrf	___xxtofl@arg+2,f
  1035  042A  0CAB               	rrf	___xxtofl@arg+1,f
  1036  042B  0CAA               	rrf	___xxtofl@arg,f
  1037  042C  3EFF               	addlw	-1
  1038  042D  1D03               	skipz
  1039  042E  2C27               	goto	u3615
  1040  042F  2C1E               	goto	l2442
  1041  0430                     l2444:
  1042  0430  3001               	movlw	1
  1043  0431  00FF               	movwf	127
  1044  0432  087F               	movf	127,w
  1045  0433  07A9               	addwf	___xxtofl@exp,f
  1046  0434  3001               	movlw	1
  1047  0435  07AA               	addwf	___xxtofl@arg,f
  1048  0436  3000               	movlw	0
  1049  0437  1803               	skipnc
  1050  0438  3001               	movlw	1
  1051  0439  07AB               	addwf	___xxtofl@arg+1,f
  1052  043A  3000               	movlw	0
  1053  043B  1803               	skipnc
  1054  043C  3001               	movlw	1
  1055  043D  07AC               	addwf	___xxtofl@arg+2,f
  1056  043E  3000               	movlw	0
  1057  043F  1803               	skipnc
  1058  0440  3001               	movlw	1
  1059  0441  07AD               	addwf	___xxtofl@arg+3,f
  1060  0442  3001               	movlw	1
  1061  0443                     u3635:
  1062  0443  1003               	clrc
  1063  0444  0CAD               	rrf	___xxtofl@arg+3,f
  1064  0445  0CAC               	rrf	___xxtofl@arg+2,f
  1065  0446  0CAB               	rrf	___xxtofl@arg+1,f
  1066  0447  0CAA               	rrf	___xxtofl@arg,f
  1067  0448  3EFF               	addlw	-1
  1068  0449  1D03               	skipz
  1069  044A  2C43               	goto	u3635
  1070  044B                     l2450:
  1071  044B  30FF               	movlw	255
  1072  044C  052D               	andwf	___xxtofl@arg+3,w
  1073  044D  1903               	btfsc	3,2
  1074  044E  2C5F               	goto	l2454
  1075  044F  2C30               	goto	l2444
  1076  0450                     l2456:
  1077  0450  3002               	movlw	2
  1078  0451  0229               	subwf	___xxtofl@exp,w
  1079  0452  1C03               	btfss	3,0
  1080  0453  2C61               	goto	l652
  1081  0454  3001               	movlw	1
  1082  0455  02A9               	subwf	___xxtofl@exp,f
  1083  0456  3001               	movlw	1
  1084  0457  00A4               	movwf	??___xxtofl
  1085  0458                     u3655:
  1086  0458  1003               	clrc
  1087  0459  0DAA               	rlf	___xxtofl@arg,f
  1088  045A  0DAB               	rlf	___xxtofl@arg+1,f
  1089  045B  0DAC               	rlf	___xxtofl@arg+2,f
  1090  045C  0DAD               	rlf	___xxtofl@arg+3,f
  1091  045D  0BA4               	decfsz	??___xxtofl,f
  1092  045E  2C58               	goto	u3655
  1093  045F                     l2454:
  1094  045F  1FAC               	btfss	___xxtofl@arg+2,7
  1095  0460  2C50               	goto	l2456
  1096  0461                     l652:
  1097  0461  1829               	btfsc	___xxtofl@exp,0
  1098  0462  2C6B               	goto	l653
  1099  0463  30FF               	movlw	255
  1100  0464  05AA               	andwf	___xxtofl@arg,f
  1101  0465  30FF               	movlw	255
  1102  0466  05AB               	andwf	___xxtofl@arg+1,f
  1103  0467  307F               	movlw	127
  1104  0468  05AC               	andwf	___xxtofl@arg+2,f
  1105  0469  30FF               	movlw	255
  1106  046A  05AD               	andwf	___xxtofl@arg+3,f
  1107  046B                     l653:
  1108  046B  1003               	clrc
  1109  046C  0CA9               	rrf	___xxtofl@exp,f
  1110  046D  0829               	movf	___xxtofl@exp,w
  1111  046E  00A4               	movwf	??___xxtofl
  1112  046F  01A5               	clrf	??___xxtofl+1
  1113  0470  01A6               	clrf	??___xxtofl+2
  1114  0471  01A7               	clrf	??___xxtofl+3
  1115  0472  3018               	movlw	24
  1116  0473                     u3695:
  1117  0473  1003               	clrc
  1118  0474  0DA4               	rlf	??___xxtofl,f
  1119  0475  0DA5               	rlf	??___xxtofl+1,f
  1120  0476  0DA6               	rlf	??___xxtofl+2,f
  1121  0477  0DA7               	rlf	??___xxtofl+3,f
  1122  0478  3EFF               	addlw	-1
  1123  0479  1D03               	skipz
  1124  047A  2C73               	goto	u3695
  1125  047B  0824               	movf	??___xxtofl,w
  1126  047C  04AA               	iorwf	___xxtofl@arg,f
  1127  047D  0825               	movf	??___xxtofl+1,w
  1128  047E  04AB               	iorwf	___xxtofl@arg+1,f
  1129  047F  0826               	movf	??___xxtofl+2,w
  1130  0480  04AC               	iorwf	___xxtofl@arg+2,f
  1131  0481  0827               	movf	??___xxtofl+3,w
  1132  0482  04AD               	iorwf	___xxtofl@arg+3,f
  1133  0483  0828               	movf	___xxtofl@sign,w
  1134  0484  1D03               	btfss	3,2
  1135  0485  1FA3               	btfss	___xxtofl@val+3,7
  1136  0486  2C88               	goto	l2468
  1137  0487  17AD               	bsf	___xxtofl@arg+3,7
  1138  0488                     l2468:
  1139  0488  082D               	movf	___xxtofl@arg+3,w
  1140  0489  00A3               	movwf	?___xxtofl+3
  1141  048A  082C               	movf	___xxtofl@arg+2,w
  1142  048B  00A2               	movwf	?___xxtofl+2
  1143  048C  082B               	movf	___xxtofl@arg+1,w
  1144  048D  00A1               	movwf	?___xxtofl+1
  1145  048E  082A               	movf	___xxtofl@arg,w
  1146  048F  00A0               	movwf	?___xxtofl
  1147  0490  0008               	return
  1148  0491                     __end_of___xxtofl:
  1149                           
  1150                           	psect	text5
  1151  0572                     __ptext5:	
  1152 ;; *************** function ___fltol *****************
  1153 ;; Defined at:
  1154 ;;		line 43 in file "C:\Program Files (x86)\Microchip\xc8\pic\sources\c90\common\fltol.c"
  1155 ;; Parameters:    Size  Location     Type
  1156 ;;  f1              4   48[BANK0 ] unsigned char 
  1157 ;; Auto vars:     Size  Location     Type
  1158 ;;  exp1            1   57[BANK0 ] unsigned char 
  1159 ;;  sign1           1   56[BANK0 ] unsigned char 
  1160 ;; Return value:  Size  Location     Type
  1161 ;;                  4   48[BANK0 ] long 
  1162 ;; Registers used:
  1163 ;;		wreg, status,2, status,0, btemp+1
  1164 ;; Tracked objects:
  1165 ;;		On entry : 300/0
  1166 ;;		On exit  : 300/0
  1167 ;;		Unchanged: 0/0
  1168 ;; Data sizes:     COMMON   BANK0   BANK1   BANK2
  1169 ;;      Params:         0       4       0       0
  1170 ;;      Locals:         0       2       0       0
  1171 ;;      Temps:          0       4       0       0
  1172 ;;      Totals:         0      10       0       0
  1173 ;;Total ram usage:       10 bytes
  1174 ;; Hardware stack levels used:    1
  1175 ;; Hardware stack levels required when called:    2
  1176 ;; This function calls:
  1177 ;;		Nothing
  1178 ;; This function is called by:
  1179 ;;		_Control
  1180 ;; This function uses a non-reentrant model
  1181 ;;
  1182                           
  1183                           
  1184                           ;psect for function ___fltol
  1185  0572                     ___fltol:
  1186                           
  1187                           ;incstack = 0
  1188                           ; Regs used in ___fltol: [wreg+status,2+status,0+btemp+1]
  1189  0572  1003               	clrc
  1190  0573  0D52               	rlf	___fltol@f1+2,w
  1191  0574  0D53               	rlf	___fltol@f1+3,w
  1192  0575  00FF               	movwf	127
  1193  0576  087F               	movf	127,w
  1194  0577  00D9               	movwf	___fltol@exp1
  1195  0578  0859               	movf	___fltol@exp1,w
  1196  0579  1D03               	btfss	3,2
  1197  057A  2D84               	goto	l1714
  1198  057B                     l1710:
  1199  057B  3000               	movlw	0
  1200  057C  00D3               	movwf	?___fltol+3
  1201  057D  3000               	movlw	0
  1202  057E  00D2               	movwf	?___fltol+2
  1203  057F  3000               	movlw	0
  1204  0580  00D1               	movwf	?___fltol+1
  1205  0581  3000               	movlw	0
  1206  0582  00D0               	movwf	?___fltol
  1207  0583  0008               	return
  1208  0584                     l1714:
  1209  0584  0850               	movf	___fltol@f1,w
  1210  0585  00D4               	movwf	??___fltol
  1211  0586  0851               	movf	___fltol@f1+1,w
  1212  0587  00D5               	movwf	??___fltol+1
  1213  0588  0852               	movf	___fltol@f1+2,w
  1214  0589  00D6               	movwf	??___fltol+2
  1215  058A  0853               	movf	___fltol@f1+3,w
  1216  058B  00D7               	movwf	??___fltol+3
  1217  058C  301F               	movlw	31
  1218  058D                     u2115:
  1219  058D  1003               	clrc
  1220  058E  0CD7               	rrf	??___fltol+3,f
  1221  058F  0CD6               	rrf	??___fltol+2,f
  1222  0590  0CD5               	rrf	??___fltol+1,f
  1223  0591  0CD4               	rrf	??___fltol,f
  1224  0592  3EFF               	addlw	-1
  1225  0593  1D03               	skipz
  1226  0594  2D8D               	goto	u2115
  1227  0595  0854               	movf	??___fltol,w
  1228  0596  00FF               	movwf	127
  1229  0597  087F               	movf	127,w
  1230  0598  00D8               	movwf	___fltol@sign1
  1231  0599  17D2               	bsf	___fltol@f1+2,7
  1232  059A  30FF               	movlw	255
  1233  059B  05D0               	andwf	___fltol@f1,f
  1234  059C  30FF               	movlw	255
  1235  059D  05D1               	andwf	___fltol@f1+1,f
  1236  059E  30FF               	movlw	255
  1237  059F  05D2               	andwf	___fltol@f1+2,f
  1238  05A0  3000               	movlw	0
  1239  05A1  05D3               	andwf	___fltol@f1+3,f
  1240  05A2  3096               	movlw	150
  1241  05A3  02D9               	subwf	___fltol@exp1,f
  1242  05A4  1FD9               	btfss	___fltol@exp1,7
  1243  05A5  2DBB               	goto	l1734
  1244  05A6  0859               	movf	___fltol@exp1,w
  1245  05A7  3A80               	xorlw	128
  1246  05A8  3E97               	addlw	151
  1247  05A9  1C03               	btfss	3,0
  1248  05AA  2D7B               	goto	l1710
  1249  05AB                     l1730:
  1250  05AB  3001               	movlw	1
  1251  05AC                     u2145:
  1252  05AC  1003               	clrc
  1253  05AD  0CD3               	rrf	___fltol@f1+3,f
  1254  05AE  0CD2               	rrf	___fltol@f1+2,f
  1255  05AF  0CD1               	rrf	___fltol@f1+1,f
  1256  05B0  0CD0               	rrf	___fltol@f1,f
  1257  05B1  3EFF               	addlw	-1
  1258  05B2  1D03               	skipz
  1259  05B3  2DAC               	goto	u2145
  1260  05B4  3001               	movlw	1
  1261  05B5  00FF               	movwf	127
  1262  05B6  087F               	movf	127,w
  1263  05B7  07D9               	addwf	___fltol@exp1,f
  1264  05B8  1903               	btfsc	3,2
  1265  05B9  2DCE               	goto	l1742
  1266  05BA  2DAB               	goto	l1730
  1267  05BB                     l1734:
  1268  05BB  3020               	movlw	32
  1269  05BC  0259               	subwf	___fltol@exp1,w
  1270  05BD  1803               	btfsc	3,0
  1271  05BE  2D7B               	goto	l1710
  1272  05BF                     l399:
  1273  05BF  0859               	movf	___fltol@exp1,w
  1274  05C0  1903               	btfsc	3,2
  1275  05C1  2DCE               	goto	l1742
  1276  05C2  3001               	movlw	1
  1277  05C3  00D4               	movwf	??___fltol
  1278  05C4                     u2175:
  1279  05C4  1003               	clrc
  1280  05C5  0DD0               	rlf	___fltol@f1,f
  1281  05C6  0DD1               	rlf	___fltol@f1+1,f
  1282  05C7  0DD2               	rlf	___fltol@f1+2,f
  1283  05C8  0DD3               	rlf	___fltol@f1+3,f
  1284  05C9  0BD4               	decfsz	??___fltol,f
  1285  05CA  2DC4               	goto	u2175
  1286  05CB  3001               	movlw	1
  1287  05CC  02D9               	subwf	___fltol@exp1,f
  1288  05CD  2DBF               	goto	l399
  1289  05CE                     l1742:
  1290  05CE  0858               	movf	___fltol@sign1,w
  1291  05CF  1903               	btfsc	3,2
  1292  05D0  0008               	return
  1293  05D1  09D0               	comf	___fltol@f1,f
  1294  05D2  09D1               	comf	___fltol@f1+1,f
  1295  05D3  09D2               	comf	___fltol@f1+2,f
  1296  05D4  09D3               	comf	___fltol@f1+3,f
  1297  05D5  0AD0               	incf	___fltol@f1,f
  1298  05D6  1903               	skipnz
  1299  05D7  0AD1               	incf	___fltol@f1+1,f
  1300  05D8  1903               	skipnz
  1301  05D9  0AD2               	incf	___fltol@f1+2,f
  1302  05DA  1903               	skipnz
  1303  05DB  0AD3               	incf	___fltol@f1+3,f
  1304  05DC  0008               	return
  1305  05DD                     __end_of___fltol:
  1306                           
  1307                           	psect	text6
  1308  0711                     __ptext6:	
  1309 ;; *************** function ___flsub *****************
  1310 ;; Defined at:
  1311 ;;		line 242 in file "C:\Program Files (x86)\Microchip\xc8\pic\sources\c90\common\sprcadd.c"
  1312 ;; Parameters:    Size  Location     Type
  1313 ;;  a               4   40[BANK0 ] long 
  1314 ;;  b               4   44[BANK0 ] long 
  1315 ;; Auto vars:     Size  Location     Type
  1316 ;;		None
  1317 ;; Return value:  Size  Location     Type
  1318 ;;                  4   40[BANK0 ] long 
  1319 ;; Registers used:
  1320 ;;		wreg, status,2, status,0, btemp+1, pclath, cstack
  1321 ;; Tracked objects:
  1322 ;;		On entry : 300/0
  1323 ;;		On exit  : 300/0
  1324 ;;		Unchanged: 0/0
  1325 ;; Data sizes:     COMMON   BANK0   BANK1   BANK2
  1326 ;;      Params:         0       8       0       0
  1327 ;;      Locals:         0       0       0       0
  1328 ;;      Temps:          0       0       0       0
  1329 ;;      Totals:         0       8       0       0
  1330 ;;Total ram usage:        8 bytes
  1331 ;; Hardware stack levels used:    1
  1332 ;; Hardware stack levels required when called:    3
  1333 ;; This function calls:
  1334 ;;		___fladd
  1335 ;; This function is called by:
  1336 ;;		_Control
  1337 ;; This function uses a non-reentrant model
  1338 ;;
  1339                           
  1340                           
  1341                           ;psect for function ___flsub
  1342  0711                     ___flsub:
  1343                           
  1344                           ;incstack = 0
  1345                           ; Regs used in ___flsub: [wreg+status,2+status,0+btemp+1+pclath+cstack]
  1346  0711  3080               	movlw	128
  1347  0712  06CB               	xorwf	___flsub@a+3,f
  1348  0713  084F               	movf	___flsub@b+3,w
  1349  0714  00A3               	movwf	___fladd@b+3
  1350  0715  084E               	movf	___flsub@b+2,w
  1351  0716  00A2               	movwf	___fladd@b+2
  1352  0717  084D               	movf	___flsub@b+1,w
  1353  0718  00A1               	movwf	___fladd@b+1
  1354  0719  084C               	movf	___flsub@b,w
  1355  071A  00A0               	movwf	___fladd@b
  1356  071B  084B               	movf	___flsub@a+3,w
  1357  071C  00A7               	movwf	___fladd@a+3
  1358  071D  084A               	movf	___flsub@a+2,w
  1359  071E  00A6               	movwf	___fladd@a+2
  1360  071F  0849               	movf	___flsub@a+1,w
  1361  0720  00A5               	movwf	___fladd@a+1
  1362  0721  0848               	movf	___flsub@a,w
  1363  0722  00A4               	movwf	___fladd@a
  1364  0723  2020               	fcall	___fladd
  1365  0724  0823               	movf	?___fladd+3,w
  1366  0725  00CB               	movwf	?___flsub+3
  1367  0726  0822               	movf	?___fladd+2,w
  1368  0727  00CA               	movwf	?___flsub+2
  1369  0728  0821               	movf	?___fladd+1,w
  1370  0729  00C9               	movwf	?___flsub+1
  1371  072A  0820               	movf	?___fladd,w
  1372  072B  00C8               	movwf	?___flsub
  1373  072C  0008               	return
  1374  072D                     __end_of___flsub:
  1375                           
  1376                           	psect	text7
  1377  0020                     __ptext7:	
  1378 ;; *************** function ___fladd *****************
  1379 ;; Defined at:
  1380 ;;		line 10 in file "C:\Program Files (x86)\Microchip\xc8\pic\sources\c90\common\sprcadd.c"
  1381 ;; Parameters:    Size  Location     Type
  1382 ;;  b               4    0[BANK0 ] long 
  1383 ;;  a               4    4[BANK0 ] long 
  1384 ;; Auto vars:     Size  Location     Type
  1385 ;;  grs             1   19[BANK0 ] unsigned char 
  1386 ;;  bexp            1   18[BANK0 ] unsigned char 
  1387 ;;  aexp            1   17[BANK0 ] unsigned char 
  1388 ;;  signs           1   16[BANK0 ] unsigned char 
  1389 ;; Return value:  Size  Location     Type
  1390 ;;                  4    0[BANK0 ] unsigned char 
  1391 ;; Registers used:
  1392 ;;		wreg, status,2, status,0, btemp+1
  1393 ;; Tracked objects:
  1394 ;;		On entry : 300/0
  1395 ;;		On exit  : 300/0
  1396 ;;		Unchanged: 0/0
  1397 ;; Data sizes:     COMMON   BANK0   BANK1   BANK2
  1398 ;;      Params:         0       8       0       0
  1399 ;;      Locals:         0       4       0       0
  1400 ;;      Temps:          0       8       0       0
  1401 ;;      Totals:         0      20       0       0
  1402 ;;Total ram usage:       20 bytes
  1403 ;; Hardware stack levels used:    1
  1404 ;; Hardware stack levels required when called:    2
  1405 ;; This function calls:
  1406 ;;		Nothing
  1407 ;; This function is called by:
  1408 ;;		___flsub
  1409 ;; This function uses a non-reentrant model
  1410 ;;
  1411                           
  1412                           
  1413                           ;psect for function ___fladd
  1414  0020                     ___fladd:
  1415                           
  1416                           ;incstack = 0
  1417                           ; Regs used in ___fladd: [wreg+status,2+status,0+btemp+1]
  1418  0020  0823               	movf	___fladd@b+3,w
  1419  0021  3980               	andlw	128
  1420  0022  00FF               	movwf	127
  1421  0023  087F               	movf	127,w
  1422  0024  00B0               	movwf	___fladd@signs
  1423  0025  0823               	movf	___fladd@b+3,w
  1424  0026  00A8               	movwf	??___fladd
  1425  0027  0728               	addwf	??___fladd,w
  1426  0028  00FF               	movwf	127
  1427  0029  087F               	movf	127,w
  1428  002A  00B2               	movwf	___fladd@bexp
  1429  002B  1BA2               	btfsc	___fladd@b+2,7
  1430  002C  1432               	bsf	___fladd@bexp,0
  1431  002D  0832               	movf	___fladd@bexp,w
  1432  002E  1903               	btfsc	3,2
  1433  002F  283E               	goto	l2124
  1434  0030  0A32               	incf	___fladd@bexp,w
  1435  0031  1D03               	btfss	3,2
  1436  0032  283B               	goto	l2120
  1437  0033  3000               	movlw	0
  1438  0034  00A3               	movwf	___fladd@b+3
  1439  0035  3000               	movlw	0
  1440  0036  00A2               	movwf	___fladd@b+2
  1441  0037  3000               	movlw	0
  1442  0038  00A1               	movwf	___fladd@b+1
  1443  0039  3000               	movlw	0
  1444  003A  00A0               	movwf	___fladd@b
  1445  003B                     l2120:
  1446  003B  17A2               	bsf	___fladd@b+2,7
  1447  003C  01A3               	clrf	___fladd@b+3
  1448  003D  2846               	goto	l2126
  1449  003E                     l2124:
  1450  003E  3000               	movlw	0
  1451  003F  00A3               	movwf	___fladd@b+3
  1452  0040  3000               	movlw	0
  1453  0041  00A2               	movwf	___fladd@b+2
  1454  0042  3000               	movlw	0
  1455  0043  00A1               	movwf	___fladd@b+1
  1456  0044  3000               	movlw	0
  1457  0045  00A0               	movwf	___fladd@b
  1458  0046                     l2126:
  1459  0046  0827               	movf	___fladd@a+3,w
  1460  0047  3980               	andlw	128
  1461  0048  00FF               	movwf	127
  1462  0049  087F               	movf	127,w
  1463  004A  00B1               	movwf	___fladd@aexp
  1464  004B  0831               	movf	___fladd@aexp,w
  1465  004C  0630               	xorwf	___fladd@signs,w
  1466  004D  1D03               	btfss	3,2
  1467  004E  1730               	bsf	___fladd@signs,6
  1468  004F  0827               	movf	___fladd@a+3,w
  1469  0050  00A8               	movwf	??___fladd
  1470  0051  0728               	addwf	??___fladd,w
  1471  0052  00FF               	movwf	127
  1472  0053  087F               	movf	127,w
  1473  0054  00B1               	movwf	___fladd@aexp
  1474  0055  1BA6               	btfsc	___fladd@a+2,7
  1475  0056  1431               	bsf	___fladd@aexp,0
  1476  0057  0831               	movf	___fladd@aexp,w
  1477  0058  1903               	btfsc	3,2
  1478  0059  2868               	goto	l2148
  1479  005A  0A31               	incf	___fladd@aexp,w
  1480  005B  1D03               	btfss	3,2
  1481  005C  2865               	goto	l2144
  1482  005D  3000               	movlw	0
  1483  005E  00A7               	movwf	___fladd@a+3
  1484  005F  3000               	movlw	0
  1485  0060  00A6               	movwf	___fladd@a+2
  1486  0061  3000               	movlw	0
  1487  0062  00A5               	movwf	___fladd@a+1
  1488  0063  3000               	movlw	0
  1489  0064  00A4               	movwf	___fladd@a
  1490  0065                     l2144:
  1491  0065  17A6               	bsf	___fladd@a+2,7
  1492  0066  01A7               	clrf	___fladd@a+3
  1493  0067  2870               	goto	l499
  1494  0068                     l2148:
  1495  0068  3000               	movlw	0
  1496  0069  00A7               	movwf	___fladd@a+3
  1497  006A  3000               	movlw	0
  1498  006B  00A6               	movwf	___fladd@a+2
  1499  006C  3000               	movlw	0
  1500  006D  00A5               	movwf	___fladd@a+1
  1501  006E  3000               	movlw	0
  1502  006F  00A4               	movwf	___fladd@a
  1503  0070                     l499:
  1504  0070  0832               	movf	___fladd@bexp,w
  1505  0071  0231               	subwf	___fladd@aexp,w
  1506  0072  1803               	skipnc
  1507  0073  28B6               	goto	l2184
  1508  0074  1F30               	btfss	___fladd@signs,6
  1509  0075  287A               	goto	l2154
  1510  0076  3080               	movlw	128
  1511  0077  00FF               	movwf	127
  1512  0078  087F               	movf	127,w
  1513  0079  06B0               	xorwf	___fladd@signs,f
  1514  007A                     l2154:
  1515  007A  0832               	movf	___fladd@bexp,w
  1516  007B  00FF               	movwf	127
  1517  007C  087F               	movf	127,w
  1518  007D  00B3               	movwf	___fladd@grs
  1519  007E  0831               	movf	___fladd@aexp,w
  1520  007F  00FF               	movwf	127
  1521  0080  087F               	movf	127,w
  1522  0081  00B2               	movwf	___fladd@bexp
  1523  0082  0833               	movf	___fladd@grs,w
  1524  0083  00FF               	movwf	127
  1525  0084  087F               	movf	127,w
  1526  0085  00B1               	movwf	___fladd@aexp
  1527  0086  0820               	movf	___fladd@b,w
  1528  0087  00FF               	movwf	127
  1529  0088  087F               	movf	127,w
  1530  0089  00B3               	movwf	___fladd@grs
  1531  008A  0824               	movf	___fladd@a,w
  1532  008B  00FF               	movwf	127
  1533  008C  087F               	movf	127,w
  1534  008D  00A0               	movwf	___fladd@b
  1535  008E  0833               	movf	___fladd@grs,w
  1536  008F  00FF               	movwf	127
  1537  0090  087F               	movf	127,w
  1538  0091  00A4               	movwf	___fladd@a
  1539  0092  0821               	movf	___fladd@b+1,w
  1540  0093  00FF               	movwf	127
  1541  0094  087F               	movf	127,w
  1542  0095  00B3               	movwf	___fladd@grs
  1543  0096  0825               	movf	___fladd@a+1,w
  1544  0097  00FF               	movwf	127
  1545  0098  087F               	movf	127,w
  1546  0099  00A1               	movwf	___fladd@b+1
  1547  009A  0833               	movf	___fladd@grs,w
  1548  009B  00FF               	movwf	127
  1549  009C  087F               	movf	127,w
  1550  009D  00A5               	movwf	___fladd@a+1
  1551  009E  0822               	movf	___fladd@b+2,w
  1552  009F  00FF               	movwf	127
  1553  00A0  087F               	movf	127,w
  1554  00A1  00B3               	movwf	___fladd@grs
  1555  00A2  0826               	movf	___fladd@a+2,w
  1556  00A3  00FF               	movwf	127
  1557  00A4  087F               	movf	127,w
  1558  00A5  00A2               	movwf	___fladd@b+2
  1559  00A6  0833               	movf	___fladd@grs,w
  1560  00A7  00FF               	movwf	127
  1561  00A8  087F               	movf	127,w
  1562  00A9  00A6               	movwf	___fladd@a+2
  1563  00AA  0823               	movf	___fladd@b+3,w
  1564  00AB  00FF               	movwf	127
  1565  00AC  087F               	movf	127,w
  1566  00AD  00B3               	movwf	___fladd@grs
  1567  00AE  0827               	movf	___fladd@a+3,w
  1568  00AF  00FF               	movwf	127
  1569  00B0  087F               	movf	127,w
  1570  00B1  00A3               	movwf	___fladd@b+3
  1571  00B2  0833               	movf	___fladd@grs,w
  1572  00B3  00FF               	movwf	127
  1573  00B4  087F               	movf	127,w
  1574  00B5  00A7               	movwf	___fladd@a+3
  1575  00B6                     l2184:
  1576  00B6  01B3               	clrf	___fladd@grs
  1577  00B7  0831               	movf	___fladd@aexp,w
  1578  00B8  00A8               	movwf	??___fladd
  1579  00B9  01A9               	clrf	??___fladd+1
  1580  00BA  0829               	movf	??___fladd+1,w
  1581  00BB  00AB               	movwf	??___fladd+3
  1582  00BC  0832               	movf	___fladd@bexp,w
  1583  00BD  0228               	subwf	??___fladd,w
  1584  00BE  00AA               	movwf	??___fladd+2
  1585  00BF  1C03               	skipc
  1586  00C0  03AB               	decf	??___fladd+3,f
  1587  00C1  082B               	movf	??___fladd+3,w
  1588  00C2  3A80               	xorlw	128
  1589  00C3  00FF               	movwf	127
  1590  00C4  3080               	movlw	128
  1591  00C5  027F               	subwf	127,w
  1592  00C6  1D03               	skipz
  1593  00C7  28CA               	goto	u2985
  1594  00C8  301A               	movlw	26
  1595  00C9  022A               	subwf	??___fladd+2,w
  1596  00CA                     u2985:
  1597  00CA  1C03               	skipc
  1598  00CB  2903               	goto	l2206
  1599  00CC  1283               	bcf	3,5	;RP0=0, select bank0
  1600  00CD  1303               	bcf	3,6	;RP1=0, select bank0
  1601  00CE  0823               	movf	___fladd@b+3,w
  1602  00CF  0422               	iorwf	___fladd@b+2,w
  1603  00D0  0421               	iorwf	___fladd@b+1,w
  1604  00D1  0420               	iorwf	___fladd@b,w
  1605  00D2  1903               	btfsc	3,2
  1606  00D3  28D6               	goto	u2990
  1607  00D4  3001               	movlw	1
  1608  00D5  28D7               	goto	u3000
  1609  00D6                     u2990:
  1610  00D6  3000               	movlw	0
  1611  00D7                     u3000:
  1612  00D7  00FF               	movwf	127
  1613  00D8  087F               	movf	127,w
  1614  00D9  00B3               	movwf	___fladd@grs
  1615  00DA  3000               	movlw	0
  1616  00DB  00A3               	movwf	___fladd@b+3
  1617  00DC  3000               	movlw	0
  1618  00DD  00A2               	movwf	___fladd@b+2
  1619  00DE  3000               	movlw	0
  1620  00DF  00A1               	movwf	___fladd@b+1
  1621  00E0  3000               	movlw	0
  1622  00E1  00A0               	movwf	___fladd@b
  1623  00E2  0831               	movf	___fladd@aexp,w
  1624  00E3  00FF               	movwf	127
  1625  00E4  087F               	movf	127,w
  1626  00E5  00B2               	movwf	___fladd@bexp
  1627  00E6  2909               	goto	l503
  1628  00E7                     l505:
  1629  00E7  1C33               	btfss	___fladd@grs,0
  1630  00E8  28F2               	goto	l2196
  1631  00E9  0833               	movf	___fladd@grs,w
  1632  00EA  00A8               	movwf	??___fladd
  1633  00EB  1003               	clrc
  1634  00EC  0C28               	rrf	??___fladd,w
  1635  00ED  3801               	iorlw	1
  1636  00EE  00FF               	movwf	127
  1637  00EF  087F               	movf	127,w
  1638  00F0  00B3               	movwf	___fladd@grs
  1639  00F1  28F4               	goto	l2198
  1640  00F2                     l2196:
  1641  00F2  1003               	clrc
  1642  00F3  0CB3               	rrf	___fladd@grs,f
  1643  00F4                     l2198:
  1644  00F4  1820               	btfsc	___fladd@b,0
  1645  00F5  17B3               	bsf	___fladd@grs,7
  1646  00F6  3001               	movlw	1
  1647  00F7  00A8               	movwf	??___fladd
  1648  00F8                     u3035:
  1649  00F8  0D23               	rlf	___fladd@b+3,w
  1650  00F9  0CA3               	rrf	___fladd@b+3,f
  1651  00FA  0CA2               	rrf	___fladd@b+2,f
  1652  00FB  0CA1               	rrf	___fladd@b+1,f
  1653  00FC  0CA0               	rrf	___fladd@b,f
  1654  00FD  0BA8               	decfsz	??___fladd& (0+127),f
  1655  00FE  28F8               	goto	u3035
  1656  00FF  3001               	movlw	1
  1657  0100  00FF               	movwf	127
  1658  0101  087F               	movf	127,w
  1659  0102  07B2               	addwf	___fladd@bexp,f
  1660  0103                     l2206:
  1661  0103  1283               	bcf	3,5	;RP0=0, select bank0
  1662  0104  1303               	bcf	3,6	;RP1=0, select bank0
  1663  0105  0831               	movf	___fladd@aexp,w
  1664  0106  0232               	subwf	___fladd@bexp,w
  1665  0107  1C03               	skipc
  1666  0108  28E7               	goto	l505
  1667  0109                     l503:
  1668  0109  1B30               	btfsc	___fladd@signs,6
  1669  010A  294A               	goto	l2232
  1670  010B  0832               	movf	___fladd@bexp,w
  1671  010C  1D03               	btfss	3,2
  1672  010D  2917               	goto	l2214
  1673  010E  3000               	movlw	0
  1674  010F  00A3               	movwf	?___fladd+3
  1675  0110  3000               	movlw	0
  1676  0111  00A2               	movwf	?___fladd+2
  1677  0112  3000               	movlw	0
  1678  0113  00A1               	movwf	?___fladd+1
  1679  0114  3000               	movlw	0
  1680  0115  00A0               	movwf	?___fladd
  1681  0116  0008               	return
  1682  0117                     l2214:
  1683  0117  0824               	movf	___fladd@a,w
  1684  0118  07A0               	addwf	___fladd@b,f
  1685  0119  0825               	movf	___fladd@a+1,w
  1686  011A  1103               	clrz
  1687  011B  1803               	skipnc
  1688  011C  3E01               	addlw	1
  1689  011D  1D03               	btfss	3,2
  1690  011E  07A1               	addwf	___fladd@b+1,f
  1691  011F  0826               	movf	___fladd@a+2,w
  1692  0120  1103               	clrz
  1693  0121  1803               	skipnc
  1694  0122  3E01               	addlw	1
  1695  0123  1D03               	btfss	3,2
  1696  0124  07A2               	addwf	___fladd@b+2,f
  1697  0125  0827               	movf	___fladd@a+3,w
  1698  0126  1103               	clrz
  1699  0127  1803               	skipnc
  1700  0128  3E01               	addlw	1
  1701  0129  1D03               	btfss	3,2
  1702  012A  07A3               	addwf	___fladd@b+3,f
  1703  012B  1C23               	btfss	___fladd@b+3,0
  1704  012C  29EC               	goto	l2268
  1705  012D  1C33               	btfss	___fladd@grs,0
  1706  012E  2938               	goto	l2222
  1707  012F  0833               	movf	___fladd@grs,w
  1708  0130  00A8               	movwf	??___fladd
  1709  0131  1003               	clrc
  1710  0132  0C28               	rrf	??___fladd,w
  1711  0133  3801               	iorlw	1
  1712  0134  00FF               	movwf	127
  1713  0135  087F               	movf	127,w
  1714  0136  00B3               	movwf	___fladd@grs
  1715  0137  293A               	goto	l2224
  1716  0138                     l2222:
  1717  0138  1003               	clrc
  1718  0139  0CB3               	rrf	___fladd@grs,f
  1719  013A                     l2224:
  1720  013A  1820               	btfsc	___fladd@b,0
  1721  013B  17B3               	bsf	___fladd@grs,7
  1722  013C  3001               	movlw	1
  1723  013D  00A8               	movwf	??___fladd
  1724  013E                     u3115:
  1725  013E  0D23               	rlf	___fladd@b+3,w
  1726  013F  0CA3               	rrf	___fladd@b+3,f
  1727  0140  0CA2               	rrf	___fladd@b+2,f
  1728  0141  0CA1               	rrf	___fladd@b+1,f
  1729  0142  0CA0               	rrf	___fladd@b,f
  1730  0143  0BA8               	decfsz	??___fladd& (0+127),f
  1731  0144  293E               	goto	u3115
  1732  0145  3001               	movlw	1
  1733  0146  00FF               	movwf	127
  1734  0147  087F               	movf	127,w
  1735  0148  07B2               	addwf	___fladd@bexp,f
  1736  0149  29EC               	goto	l2268
  1737  014A                     l2232:
  1738  014A  0823               	movf	___fladd@b+3,w
  1739  014B  3A80               	xorlw	128
  1740  014C  00FF               	movwf	127
  1741  014D  0827               	movf	___fladd@a+3,w
  1742  014E  3A80               	xorlw	128
  1743  014F  027F               	subwf	127,w
  1744  0150  1D03               	skipz
  1745  0151  295C               	goto	u3123
  1746  0152  0826               	movf	___fladd@a+2,w
  1747  0153  0222               	subwf	___fladd@b+2,w
  1748  0154  1D03               	skipz
  1749  0155  295C               	goto	u3123
  1750  0156  0825               	movf	___fladd@a+1,w
  1751  0157  0221               	subwf	___fladd@b+1,w
  1752  0158  1D03               	skipz
  1753  0159  295C               	goto	u3123
  1754  015A  0824               	movf	___fladd@a,w
  1755  015B  0220               	subwf	___fladd@b,w
  1756  015C                     u3123:
  1757  015C  1803               	skipnc
  1758  015D  29B4               	goto	l2244
  1759  015E  30FF               	movlw	255
  1760  015F  00A8               	movwf	??___fladd
  1761  0160  30FF               	movlw	255
  1762  0161  00A9               	movwf	??___fladd+1
  1763  0162  30FF               	movlw	255
  1764  0163  00AA               	movwf	??___fladd+2
  1765  0164  30FF               	movlw	255
  1766  0165  00AB               	movwf	??___fladd+3
  1767  0166  0824               	movf	___fladd@a,w
  1768  0167  00AC               	movwf	??___fladd+4
  1769  0168  0825               	movf	___fladd@a+1,w
  1770  0169  00AD               	movwf	??___fladd+5
  1771  016A  0826               	movf	___fladd@a+2,w
  1772  016B  00AE               	movwf	??___fladd+6
  1773  016C  0827               	movf	___fladd@a+3,w
  1774  016D  00AF               	movwf	??___fladd+7
  1775  016E  0820               	movf	___fladd@b,w
  1776  016F  02AC               	subwf	??___fladd+4,f
  1777  0170  0821               	movf	___fladd@b+1,w
  1778  0171  1C03               	skipc
  1779  0172  0F21               	incfsz	___fladd@b+1,w
  1780  0173  2975               	goto	u3131
  1781  0174  2976               	goto	u3132
  1782  0175                     u3131:
  1783  0175  02AD               	subwf	??___fladd+5,f
  1784  0176                     u3132:
  1785  0176  0822               	movf	___fladd@b+2,w
  1786  0177  1C03               	skipc
  1787  0178  0F22               	incfsz	___fladd@b+2,w
  1788  0179  297B               	goto	u3133
  1789  017A  297C               	goto	u3134
  1790  017B                     u3133:
  1791  017B  02AE               	subwf	??___fladd+6,f
  1792  017C                     u3134:
  1793  017C  0823               	movf	___fladd@b+3,w
  1794  017D  1C03               	skipc
  1795  017E  0F23               	incfsz	___fladd@b+3,w
  1796  017F  2981               	goto	u3135
  1797  0180  2982               	goto	u3136
  1798  0181                     u3135:
  1799  0181  02AF               	subwf	??___fladd+7,f
  1800  0182                     u3136:
  1801  0182  082C               	movf	??___fladd+4,w
  1802  0183  07A8               	addwf	??___fladd,f
  1803  0184  082D               	movf	??___fladd+5,w
  1804  0185  1803               	skipnc
  1805  0186  0F2D               	incfsz	??___fladd+5,w
  1806  0187  2989               	goto	u3140
  1807  0188  298A               	goto	u3141
  1808  0189                     u3140:
  1809  0189  07A9               	addwf	??___fladd+1,f
  1810  018A                     u3141:
  1811  018A  082E               	movf	??___fladd+6,w
  1812  018B  1803               	skipnc
  1813  018C  0F2E               	incfsz	??___fladd+6,w
  1814  018D  298F               	goto	u3142
  1815  018E  2990               	goto	u3143
  1816  018F                     u3142:
  1817  018F  07AA               	addwf	??___fladd+2,f
  1818  0190                     u3143:
  1819  0190  082F               	movf	??___fladd+7,w
  1820  0191  1803               	skipnc
  1821  0192  0A2F               	incf	??___fladd+7,w
  1822  0193  07AB               	addwf	??___fladd+3,f
  1823  0194  082B               	movf	??___fladd+3,w
  1824  0195  00A3               	movwf	___fladd@b+3
  1825  0196  082A               	movf	??___fladd+2,w
  1826  0197  00A2               	movwf	___fladd@b+2
  1827  0198  0829               	movf	??___fladd+1,w
  1828  0199  00A1               	movwf	___fladd@b+1
  1829  019A  0828               	movf	??___fladd,w
  1830  019B  00A0               	movwf	___fladd@b
  1831  019C  3080               	movlw	128
  1832  019D  00FF               	movwf	127
  1833  019E  087F               	movf	127,w
  1834  019F  06B0               	xorwf	___fladd@signs,f
  1835  01A0  09B3               	comf	___fladd@grs,f
  1836  01A1  0AB3               	incf	___fladd@grs,f
  1837  01A2  0833               	movf	___fladd@grs,w
  1838  01A3  1D03               	btfss	3,2
  1839  01A4  29C2               	goto	l520
  1840  01A5  3001               	movlw	1
  1841  01A6  07A0               	addwf	___fladd@b,f
  1842  01A7  3000               	movlw	0
  1843  01A8  1803               	skipnc
  1844  01A9  3001               	movlw	1
  1845  01AA  07A1               	addwf	___fladd@b+1,f
  1846  01AB  3000               	movlw	0
  1847  01AC  1803               	skipnc
  1848  01AD  3001               	movlw	1
  1849  01AE  07A2               	addwf	___fladd@b+2,f
  1850  01AF  3000               	movlw	0
  1851  01B0  1803               	skipnc
  1852  01B1  3001               	movlw	1
  1853  01B2  07A3               	addwf	___fladd@b+3,f
  1854  01B3  29C2               	goto	l520
  1855  01B4                     l2244:
  1856  01B4  0824               	movf	___fladd@a,w
  1857  01B5  02A0               	subwf	___fladd@b,f
  1858  01B6  0825               	movf	___fladd@a+1,w
  1859  01B7  1C03               	skipc
  1860  01B8  0F25               	incfsz	___fladd@a+1,w
  1861  01B9  02A1               	subwf	___fladd@b+1,f
  1862  01BA  0826               	movf	___fladd@a+2,w
  1863  01BB  1C03               	skipc
  1864  01BC  0F26               	incfsz	___fladd@a+2,w
  1865  01BD  02A2               	subwf	___fladd@b+2,f
  1866  01BE  0827               	movf	___fladd@a+3,w
  1867  01BF  1C03               	skipc
  1868  01C0  0F27               	incfsz	___fladd@a+3,w
  1869  01C1  02A3               	subwf	___fladd@b+3,f
  1870  01C2                     l520:
  1871  01C2  0823               	movf	___fladd@b+3,w
  1872  01C3  0422               	iorwf	___fladd@b+2,w
  1873  01C4  0421               	iorwf	___fladd@b+1,w
  1874  01C5  0420               	iorwf	___fladd@b,w
  1875  01C6  1D03               	skipz
  1876  01C7  29EA               	goto	l2266
  1877  01C8  0833               	movf	___fladd@grs,w
  1878  01C9  1D03               	btfss	3,2
  1879  01CA  29EA               	goto	l2266
  1880  01CB  3000               	movlw	0
  1881  01CC  00A3               	movwf	?___fladd+3
  1882  01CD  3000               	movlw	0
  1883  01CE  00A2               	movwf	?___fladd+2
  1884  01CF  3000               	movlw	0
  1885  01D0  00A1               	movwf	?___fladd+1
  1886  01D1  3000               	movlw	0
  1887  01D2  00A0               	movwf	?___fladd
  1888  01D3  0008               	return
  1889  01D4                     l2252:
  1890  01D4  3001               	movlw	1
  1891  01D5  00A8               	movwf	??___fladd
  1892  01D6                     u3185:
  1893  01D6  1003               	clrc
  1894  01D7  0DA0               	rlf	___fladd@b,f
  1895  01D8  0DA1               	rlf	___fladd@b+1,f
  1896  01D9  0DA2               	rlf	___fladd@b+2,f
  1897  01DA  0DA3               	rlf	___fladd@b+3,f
  1898  01DB  0BA8               	decfsz	??___fladd,f
  1899  01DC  29D6               	goto	u3185
  1900  01DD  1BB3               	btfsc	___fladd@grs,7
  1901  01DE  1420               	bsf	___fladd@b,0
  1902  01DF  1C33               	btfss	___fladd@grs,0
  1903  01E0  29E3               	goto	l2260
  1904  01E1  1403               	setc
  1905  01E2  29E4               	goto	L1
  1906  01E3                     l2260:
  1907  01E3  1003               	clrc
  1908  01E4                     L1:
  1909  01E4  0DB3               	rlf	___fladd@grs,f
  1910  01E5  0832               	movf	___fladd@bexp,w
  1911  01E6  1903               	btfsc	3,2
  1912  01E7  29EA               	goto	l2266
  1913  01E8  3001               	movlw	1
  1914  01E9  02B2               	subwf	___fladd@bexp,f
  1915  01EA                     l2266:
  1916  01EA  1FA2               	btfss	___fladd@b+2,7
  1917  01EB  29D4               	goto	l2252
  1918  01EC                     l2268:
  1919  01EC  01B1               	clrf	___fladd@aexp
  1920  01ED  1FB3               	btfss	___fladd@grs,7
  1921  01EE  29F7               	goto	l2278
  1922  01EF  0833               	movf	___fladd@grs,w
  1923  01F0  397F               	andlw	127
  1924  01F1  1903               	btfsc	3,2
  1925  01F2  1820               	btfsc	___fladd@b,0
  1926  01F3  29F5               	goto	l2274
  1927  01F4  29F7               	goto	l2278
  1928  01F5                     l2274:
  1929  01F5  01B1               	clrf	___fladd@aexp
  1930  01F6  0AB1               	incf	___fladd@aexp,f
  1931  01F7                     l2278:
  1932  01F7  0831               	movf	___fladd@aexp,w
  1933  01F8  1903               	btfsc	3,2
  1934  01F9  2A2A               	goto	l2288
  1935  01FA  3001               	movlw	1
  1936  01FB  07A0               	addwf	___fladd@b,f
  1937  01FC  3000               	movlw	0
  1938  01FD  1803               	skipnc
  1939  01FE  3001               	movlw	1
  1940  01FF  07A1               	addwf	___fladd@b+1,f
  1941  0200  3000               	movlw	0
  1942  0201  1803               	skipnc
  1943  0202  3001               	movlw	1
  1944  0203  07A2               	addwf	___fladd@b+2,f
  1945  0204  3000               	movlw	0
  1946  0205  1803               	skipnc
  1947  0206  3001               	movlw	1
  1948  0207  07A3               	addwf	___fladd@b+3,f
  1949  0208  1C23               	btfss	___fladd@b+3,0
  1950  0209  2A2A               	goto	l2288
  1951  020A  0820               	movf	___fladd@b,w
  1952  020B  00A8               	movwf	??___fladd
  1953  020C  0821               	movf	___fladd@b+1,w
  1954  020D  00A9               	movwf	??___fladd+1
  1955  020E  0822               	movf	___fladd@b+2,w
  1956  020F  00AA               	movwf	??___fladd+2
  1957  0210  0823               	movf	___fladd@b+3,w
  1958  0211  00AB               	movwf	??___fladd+3
  1959  0212  3001               	movlw	1
  1960  0213  00AC               	movwf	??___fladd+4
  1961  0214                     u3285:
  1962  0214  0D2B               	rlf	??___fladd+3,w
  1963  0215  0CAB               	rrf	??___fladd+3,f
  1964  0216  0CAA               	rrf	??___fladd+2,f
  1965  0217  0CA9               	rrf	??___fladd+1,f
  1966  0218  0CA8               	rrf	??___fladd,f
  1967  0219  0BAC               	decfsz	??___fladd+4,f
  1968  021A  2A14               	goto	u3285
  1969  021B  082B               	movf	??___fladd+3,w
  1970  021C  00A3               	movwf	___fladd@b+3
  1971  021D  082A               	movf	??___fladd+2,w
  1972  021E  00A2               	movwf	___fladd@b+2
  1973  021F  0829               	movf	??___fladd+1,w
  1974  0220  00A1               	movwf	___fladd@b+1
  1975  0221  0828               	movf	??___fladd,w
  1976  0222  00A0               	movwf	___fladd@b
  1977  0223  0A32               	incf	___fladd@bexp,w
  1978  0224  1903               	btfsc	3,2
  1979  0225  2A2A               	goto	l2288
  1980  0226  3001               	movlw	1
  1981  0227  00FF               	movwf	127
  1982  0228  087F               	movf	127,w
  1983  0229  07B2               	addwf	___fladd@bexp,f
  1984  022A                     l2288:
  1985  022A  0A32               	incf	___fladd@bexp,w
  1986  022B  1D03               	btfss	3,2
  1987  022C  0832               	movf	___fladd@bexp,w
  1988  022D  1D03               	btfss	3,2
  1989  022E  2A3A               	goto	l2298
  1990  022F  3000               	movlw	0
  1991  0230  00A3               	movwf	___fladd@b+3
  1992  0231  3000               	movlw	0
  1993  0232  00A2               	movwf	___fladd@b+2
  1994  0233  3000               	movlw	0
  1995  0234  00A1               	movwf	___fladd@b+1
  1996  0235  3000               	movlw	0
  1997  0236  00A0               	movwf	___fladd@b
  1998  0237  0832               	movf	___fladd@bexp,w
  1999  0238  1903               	btfsc	3,2
  2000  0239  01B0               	clrf	___fladd@signs
  2001  023A                     l2298:
  2002  023A  1C32               	btfss	___fladd@bexp,0
  2003  023B  2A3E               	goto	l2302
  2004  023C  17A2               	bsf	___fladd@b+2,7
  2005  023D  2A42               	goto	l541
  2006  023E                     l2302:
  2007  023E  307F               	movlw	127
  2008  023F  00FF               	movwf	127
  2009  0240  087F               	movf	127,w
  2010  0241  05A2               	andwf	___fladd@b+2,f
  2011  0242                     l541:
  2012  0242  0832               	movf	___fladd@bexp,w
  2013  0243  00A8               	movwf	??___fladd
  2014  0244  1003               	clrc
  2015  0245  0C28               	rrf	??___fladd,w
  2016  0246  00FF               	movwf	127
  2017  0247  087F               	movf	127,w
  2018  0248  00A3               	movwf	___fladd@b+3
  2019  0249  1FB0               	btfss	___fladd@signs,7
  2020  024A  0008               	return
  2021  024B  17A3               	bsf	___fladd@b+3,7
  2022  024C  0008               	return
  2023  024D                     __end_of___fladd:
  2024                           
  2025                           	psect	text8
  2026  024D                     __ptext8:	
  2027 ;; *************** function ___fldiv *****************
  2028 ;; Defined at:
  2029 ;;		line 8 in file "C:\Program Files (x86)\Microchip\xc8\pic\sources\c90\common\sprcdiv.c"
  2030 ;; Parameters:    Size  Location     Type
  2031 ;;  a               4   14[BANK0 ] unsigned char 
  2032 ;;  b               4   18[BANK0 ] unsigned char 
  2033 ;; Auto vars:     Size  Location     Type
  2034 ;;  grs             4   34[BANK0 ] unsigned long 
  2035 ;;  rem             4   27[BANK0 ] unsigned long 
  2036 ;;  new_exp         2   32[BANK0 ] int 
  2037 ;;  aexp            1   39[BANK0 ] unsigned char 
  2038 ;;  bexp            1   38[BANK0 ] unsigned char 
  2039 ;;  sign            1   31[BANK0 ] unsigned char 
  2040 ;; Return value:  Size  Location     Type
  2041 ;;                  4   14[BANK0 ] unsigned char 
  2042 ;; Registers used:
  2043 ;;		wreg, status,2, status,0, btemp+1
  2044 ;; Tracked objects:
  2045 ;;		On entry : 300/0
  2046 ;;		On exit  : 300/0
  2047 ;;		Unchanged: 0/0
  2048 ;; Data sizes:     COMMON   BANK0   BANK1   BANK2
  2049 ;;      Params:         0       8       0       0
  2050 ;;      Locals:         0      13       0       0
  2051 ;;      Temps:          0       5       0       0
  2052 ;;      Totals:         0      26       0       0
  2053 ;;Total ram usage:       26 bytes
  2054 ;; Hardware stack levels used:    1
  2055 ;; Hardware stack levels required when called:    2
  2056 ;; This function calls:
  2057 ;;		Nothing
  2058 ;; This function is called by:
  2059 ;;		_Control
  2060 ;; This function uses a non-reentrant model
  2061 ;;
  2062                           
  2063                           
  2064                           ;psect for function ___fldiv
  2065  024D                     ___fldiv:
  2066                           
  2067                           ;incstack = 0
  2068                           ; Regs used in ___fldiv: [wreg+status,2+status,0+btemp+1]
  2069  024D  0835               	movf	___fldiv@b+3,w
  2070  024E  3980               	andlw	128
  2071  024F  00FF               	movwf	127
  2072  0250  087F               	movf	127,w
  2073  0251  00BF               	movwf	___fldiv@sign
  2074  0252  0835               	movf	___fldiv@b+3,w
  2075  0253  00B6               	movwf	??___fldiv
  2076  0254  0736               	addwf	??___fldiv,w
  2077  0255  00FF               	movwf	127
  2078  0256  087F               	movf	127,w
  2079  0257  00C6               	movwf	___fldiv@bexp
  2080  0258  1BB4               	btfsc	___fldiv@b+2,7
  2081  0259  1446               	bsf	___fldiv@bexp,0
  2082  025A  0846               	movf	___fldiv@bexp,w
  2083  025B  1903               	btfsc	3,2
  2084  025C  2A6B               	goto	l1796
  2085  025D  0A46               	incf	___fldiv@bexp,w
  2086  025E  1D03               	btfss	3,2
  2087  025F  2A68               	goto	l1792
  2088  0260  3000               	movlw	0
  2089  0261  00B5               	movwf	___fldiv@b+3
  2090  0262  3000               	movlw	0
  2091  0263  00B4               	movwf	___fldiv@b+2
  2092  0264  3000               	movlw	0
  2093  0265  00B3               	movwf	___fldiv@b+1
  2094  0266  3000               	movlw	0
  2095  0267  00B2               	movwf	___fldiv@b
  2096  0268                     l1792:
  2097  0268  17B4               	bsf	___fldiv@b+2,7
  2098  0269  01B5               	clrf	___fldiv@b+3
  2099  026A  2A73               	goto	l1798
  2100  026B                     l1796:
  2101  026B  3000               	movlw	0
  2102  026C  00B5               	movwf	___fldiv@b+3
  2103  026D  3000               	movlw	0
  2104  026E  00B4               	movwf	___fldiv@b+2
  2105  026F  3000               	movlw	0
  2106  0270  00B3               	movwf	___fldiv@b+1
  2107  0271  3000               	movlw	0
  2108  0272  00B2               	movwf	___fldiv@b
  2109  0273                     l1798:
  2110  0273  0831               	movf	___fldiv@a+3,w
  2111  0274  3980               	andlw	128
  2112  0275  00FF               	movwf	127
  2113  0276  087F               	movf	127,w
  2114  0277  06BF               	xorwf	___fldiv@sign,f
  2115  0278  0831               	movf	___fldiv@a+3,w
  2116  0279  00B6               	movwf	??___fldiv
  2117  027A  0736               	addwf	??___fldiv,w
  2118  027B  00FF               	movwf	127
  2119  027C  087F               	movf	127,w
  2120  027D  00C7               	movwf	___fldiv@aexp
  2121  027E  1BB0               	btfsc	___fldiv@a+2,7
  2122  027F  1447               	bsf	___fldiv@aexp,0
  2123  0280  0847               	movf	___fldiv@aexp,w
  2124  0281  1903               	btfsc	3,2
  2125  0282  2A91               	goto	l1816
  2126  0283  0A47               	incf	___fldiv@aexp,w
  2127  0284  1D03               	btfss	3,2
  2128  0285  2A8E               	goto	l1812
  2129  0286  3000               	movlw	0
  2130  0287  00B1               	movwf	___fldiv@a+3
  2131  0288  3000               	movlw	0
  2132  0289  00B0               	movwf	___fldiv@a+2
  2133  028A  3000               	movlw	0
  2134  028B  00AF               	movwf	___fldiv@a+1
  2135  028C  3000               	movlw	0
  2136  028D  00AE               	movwf	___fldiv@a
  2137  028E                     l1812:
  2138  028E  17B0               	bsf	___fldiv@a+2,7
  2139  028F  01B1               	clrf	___fldiv@a+3
  2140  0290  2A99               	goto	l555
  2141  0291                     l1816:
  2142  0291  3000               	movlw	0
  2143  0292  00B1               	movwf	___fldiv@a+3
  2144  0293  3000               	movlw	0
  2145  0294  00B0               	movwf	___fldiv@a+2
  2146  0295  3000               	movlw	0
  2147  0296  00AF               	movwf	___fldiv@a+1
  2148  0297  3000               	movlw	0
  2149  0298  00AE               	movwf	___fldiv@a
  2150  0299                     l555:
  2151  0299  0831               	movf	___fldiv@a+3,w
  2152  029A  0430               	iorwf	___fldiv@a+2,w
  2153  029B  042F               	iorwf	___fldiv@a+1,w
  2154  029C  042E               	iorwf	___fldiv@a,w
  2155  029D  1D03               	skipz
  2156  029E  2AB8               	goto	l1826
  2157  029F  3000               	movlw	0
  2158  02A0  00B5               	movwf	___fldiv@b+3
  2159  02A1  3000               	movlw	0
  2160  02A2  00B4               	movwf	___fldiv@b+2
  2161  02A3  3000               	movlw	0
  2162  02A4  00B3               	movwf	___fldiv@b+1
  2163  02A5  3000               	movlw	0
  2164  02A6  00B2               	movwf	___fldiv@b
  2165  02A7  3080               	movlw	128
  2166  02A8  04B4               	iorwf	___fldiv@b+2,f
  2167  02A9  307F               	movlw	127
  2168  02AA  04B5               	iorwf	___fldiv@b+3,f
  2169  02AB                     L2:
  2170  02AB  083F               	movf	___fldiv@sign,w
  2171  02AC  00FF               	movwf	127
  2172  02AD  087F               	movf	127,w
  2173  02AE  04B5               	iorwf	___fldiv@b+3,f
  2174  02AF  0835               	movf	___fldiv@b+3,w
  2175  02B0  00B1               	movwf	?___fldiv+3
  2176  02B1  0834               	movf	___fldiv@b+2,w
  2177  02B2  00B0               	movwf	?___fldiv+2
  2178  02B3  0833               	movf	___fldiv@b+1,w
  2179  02B4  00AF               	movwf	?___fldiv+1
  2180  02B5  0832               	movf	___fldiv@b,w
  2181  02B6  00AE               	movwf	?___fldiv
  2182  02B7  0008               	return
  2183  02B8                     l1826:
  2184  02B8  0846               	movf	___fldiv@bexp,w
  2185  02B9  1D03               	btfss	3,2
  2186  02BA  2AC4               	goto	l1832
  2187  02BB  3000               	movlw	0
  2188  02BC  00B1               	movwf	?___fldiv+3
  2189  02BD  3000               	movlw	0
  2190  02BE  00B0               	movwf	?___fldiv+2
  2191  02BF  3000               	movlw	0
  2192  02C0  00AF               	movwf	?___fldiv+1
  2193  02C1  3000               	movlw	0
  2194  02C2  00AE               	movwf	?___fldiv
  2195  02C3  0008               	return
  2196  02C4                     l1832:
  2197  02C4  0846               	movf	___fldiv@bexp,w
  2198  02C5  00B6               	movwf	??___fldiv
  2199  02C6  01B7               	clrf	??___fldiv+1
  2200  02C7  0837               	movf	??___fldiv+1,w
  2201  02C8  00B9               	movwf	??___fldiv+3
  2202  02C9  0847               	movf	___fldiv@aexp,w
  2203  02CA  0236               	subwf	??___fldiv,w
  2204  02CB  00B8               	movwf	??___fldiv+2
  2205  02CC  1C03               	skipc
  2206  02CD  03B9               	decf	??___fldiv+3,f
  2207  02CE  0838               	movf	??___fldiv+2,w
  2208  02CF  3E7F               	addlw	127
  2209  02D0  00C0               	movwf	___fldiv@new_exp
  2210  02D1  0839               	movf	??___fldiv+3,w
  2211  02D2  1803               	skipnc
  2212  02D3  3E01               	addlw	1
  2213  02D4  3E00               	addlw	0
  2214  02D5  00C1               	movwf	___fldiv@new_exp+1
  2215  02D6  0835               	movf	___fldiv@b+3,w
  2216  02D7  00BE               	movwf	___fldiv@rem+3
  2217  02D8  0834               	movf	___fldiv@b+2,w
  2218  02D9  00BD               	movwf	___fldiv@rem+2
  2219  02DA  0833               	movf	___fldiv@b+1,w
  2220  02DB  00BC               	movwf	___fldiv@rem+1
  2221  02DC  0832               	movf	___fldiv@b,w
  2222  02DD  00BB               	movwf	___fldiv@rem
  2223  02DE  3000               	movlw	0
  2224  02DF  00B5               	movwf	___fldiv@b+3
  2225  02E0  3000               	movlw	0
  2226  02E1  00B4               	movwf	___fldiv@b+2
  2227  02E2  3000               	movlw	0
  2228  02E3  00B3               	movwf	___fldiv@b+1
  2229  02E4  3000               	movlw	0
  2230  02E5  00B2               	movwf	___fldiv@b
  2231  02E6  3000               	movlw	0
  2232  02E7  00C5               	movwf	___fldiv@grs+3
  2233  02E8  3000               	movlw	0
  2234  02E9  00C4               	movwf	___fldiv@grs+2
  2235  02EA  3000               	movlw	0
  2236  02EB  00C3               	movwf	___fldiv@grs+1
  2237  02EC  3000               	movlw	0
  2238  02ED  00C2               	movwf	___fldiv@grs
  2239  02EE  01C7               	clrf	___fldiv@aexp
  2240  02EF                     l1860:
  2241  02EF  301A               	movlw	26
  2242  02F0  0247               	subwf	___fldiv@aexp,w
  2243  02F1  1803               	btfsc	3,0
  2244  02F2  2B37               	goto	l1862
  2245  02F3  0847               	movf	___fldiv@aexp,w
  2246  02F4  1903               	btfsc	3,2
  2247  02F5  2B13               	goto	l1852
  2248  02F6  3001               	movlw	1
  2249  02F7  00B6               	movwf	??___fldiv
  2250  02F8                     u2335:
  2251  02F8  1003               	clrc
  2252  02F9  0DBB               	rlf	___fldiv@rem,f
  2253  02FA  0DBC               	rlf	___fldiv@rem+1,f
  2254  02FB  0DBD               	rlf	___fldiv@rem+2,f
  2255  02FC  0DBE               	rlf	___fldiv@rem+3,f
  2256  02FD  0BB6               	decfsz	??___fldiv,f
  2257  02FE  2AF8               	goto	u2335
  2258  02FF  3001               	movlw	1
  2259  0300  00B6               	movwf	??___fldiv
  2260  0301                     u2345:
  2261  0301  1003               	clrc
  2262  0302  0DB2               	rlf	___fldiv@b,f
  2263  0303  0DB3               	rlf	___fldiv@b+1,f
  2264  0304  0DB4               	rlf	___fldiv@b+2,f
  2265  0305  0DB5               	rlf	___fldiv@b+3,f
  2266  0306  0BB6               	decfsz	??___fldiv,f
  2267  0307  2B01               	goto	u2345
  2268  0308  1BC5               	btfsc	___fldiv@grs+3,7
  2269  0309  1432               	bsf	___fldiv@b,0
  2270  030A  3001               	movlw	1
  2271  030B  00B6               	movwf	??___fldiv
  2272  030C                     u2365:
  2273  030C  1003               	clrc
  2274  030D  0DC2               	rlf	___fldiv@grs,f
  2275  030E  0DC3               	rlf	___fldiv@grs+1,f
  2276  030F  0DC4               	rlf	___fldiv@grs+2,f
  2277  0310  0DC5               	rlf	___fldiv@grs+3,f
  2278  0311  0BB6               	decfsz	??___fldiv,f
  2279  0312  2B0C               	goto	u2365
  2280  0313                     l1852:
  2281  0313  0831               	movf	___fldiv@a+3,w
  2282  0314  023E               	subwf	___fldiv@rem+3,w
  2283  0315  1D03               	skipz
  2284  0316  2B21               	goto	u2375
  2285  0317  0830               	movf	___fldiv@a+2,w
  2286  0318  023D               	subwf	___fldiv@rem+2,w
  2287  0319  1D03               	skipz
  2288  031A  2B21               	goto	u2375
  2289  031B  082F               	movf	___fldiv@a+1,w
  2290  031C  023C               	subwf	___fldiv@rem+1,w
  2291  031D  1D03               	skipz
  2292  031E  2B21               	goto	u2375
  2293  031F  082E               	movf	___fldiv@a,w
  2294  0320  023B               	subwf	___fldiv@rem,w
  2295  0321                     u2375:
  2296  0321  1C03               	skipc
  2297  0322  2B32               	goto	l1858
  2298  0323  1745               	bsf	___fldiv@grs+3,6
  2299  0324  082E               	movf	___fldiv@a,w
  2300  0325  02BB               	subwf	___fldiv@rem,f
  2301  0326  082F               	movf	___fldiv@a+1,w
  2302  0327  1C03               	skipc
  2303  0328  0F2F               	incfsz	___fldiv@a+1,w
  2304  0329  02BC               	subwf	___fldiv@rem+1,f
  2305  032A  0830               	movf	___fldiv@a+2,w
  2306  032B  1C03               	skipc
  2307  032C  0F30               	incfsz	___fldiv@a+2,w
  2308  032D  02BD               	subwf	___fldiv@rem+2,f
  2309  032E  0831               	movf	___fldiv@a+3,w
  2310  032F  1C03               	skipc
  2311  0330  0F31               	incfsz	___fldiv@a+3,w
  2312  0331  02BE               	subwf	___fldiv@rem+3,f
  2313  0332                     l1858:
  2314  0332  3001               	movlw	1
  2315  0333  00FF               	movwf	127
  2316  0334  087F               	movf	127,w
  2317  0335  07C7               	addwf	___fldiv@aexp,f
  2318  0336  2AEF               	goto	l1860
  2319  0337                     l1862:
  2320  0337  083E               	movf	___fldiv@rem+3,w
  2321  0338  043D               	iorwf	___fldiv@rem+2,w
  2322  0339  043C               	iorwf	___fldiv@rem+1,w
  2323  033A  043B               	iorwf	___fldiv@rem,w
  2324  033B  1D03               	btfss	3,2
  2325  033C  1442               	bsf	___fldiv@grs,0
  2326  033D                     l1876:
  2327  033D  1BB4               	btfsc	___fldiv@b+2,7
  2328  033E  2B5A               	goto	l1878
  2329  033F  3001               	movlw	1
  2330  0340  00B6               	movwf	??___fldiv
  2331  0341                     u2405:
  2332  0341  1003               	clrc
  2333  0342  0DB2               	rlf	___fldiv@b,f
  2334  0343  0DB3               	rlf	___fldiv@b+1,f
  2335  0344  0DB4               	rlf	___fldiv@b+2,f
  2336  0345  0DB5               	rlf	___fldiv@b+3,f
  2337  0346  0BB6               	decfsz	??___fldiv,f
  2338  0347  2B41               	goto	u2405
  2339  0348  1BC5               	btfsc	___fldiv@grs+3,7
  2340  0349  1432               	bsf	___fldiv@b,0
  2341  034A  3001               	movlw	1
  2342  034B  00B6               	movwf	??___fldiv
  2343  034C                     u2425:
  2344  034C  1003               	clrc
  2345  034D  0DC2               	rlf	___fldiv@grs,f
  2346  034E  0DC3               	rlf	___fldiv@grs+1,f
  2347  034F  0DC4               	rlf	___fldiv@grs+2,f
  2348  0350  0DC5               	rlf	___fldiv@grs+3,f
  2349  0351  0BB6               	decfsz	??___fldiv,f
  2350  0352  2B4C               	goto	u2425
  2351  0353  30FF               	movlw	255
  2352  0354  07C0               	addwf	___fldiv@new_exp,f
  2353  0355  1803               	skipnc
  2354  0356  0AC1               	incf	___fldiv@new_exp+1,f
  2355  0357  30FF               	movlw	255
  2356  0358  07C1               	addwf	___fldiv@new_exp+1,f
  2357  0359  2B3D               	goto	l1876
  2358  035A                     l1878:
  2359  035A  01C7               	clrf	___fldiv@aexp
  2360  035B  1FC5               	btfss	___fldiv@grs+3,7
  2361  035C  2B73               	goto	l1888
  2362  035D  30FF               	movlw	255
  2363  035E  0542               	andwf	___fldiv@grs,w
  2364  035F  00B6               	movwf	??___fldiv
  2365  0360  30FF               	movlw	255
  2366  0361  0543               	andwf	___fldiv@grs+1,w
  2367  0362  00B7               	movwf	??___fldiv+1
  2368  0363  30FF               	movlw	255
  2369  0364  0544               	andwf	___fldiv@grs+2,w
  2370  0365  00B8               	movwf	??___fldiv+2
  2371  0366  307F               	movlw	127
  2372  0367  0545               	andwf	___fldiv@grs+3,w
  2373  0368  00B9               	movwf	??___fldiv+3
  2374  0369  0839               	movf	??___fldiv+3,w
  2375  036A  0438               	iorwf	??___fldiv+2,w
  2376  036B  0437               	iorwf	??___fldiv+1,w
  2377  036C  0436               	iorwf	??___fldiv,w
  2378  036D  1903               	skipnz
  2379  036E  1832               	btfsc	___fldiv@b,0
  2380  036F  2B71               	goto	l1884
  2381  0370  2B73               	goto	l1888
  2382  0371                     l1884:
  2383  0371  01C7               	clrf	___fldiv@aexp
  2384  0372  0AC7               	incf	___fldiv@aexp,f
  2385  0373                     l1888:
  2386  0373  0847               	movf	___fldiv@aexp,w
  2387  0374  1903               	btfsc	3,2
  2388  0375  2BA5               	goto	l1898
  2389  0376  3001               	movlw	1
  2390  0377  07B2               	addwf	___fldiv@b,f
  2391  0378  3000               	movlw	0
  2392  0379  1803               	skipnc
  2393  037A  3001               	movlw	1
  2394  037B  07B3               	addwf	___fldiv@b+1,f
  2395  037C  3000               	movlw	0
  2396  037D  1803               	skipnc
  2397  037E  3001               	movlw	1
  2398  037F  07B4               	addwf	___fldiv@b+2,f
  2399  0380  3000               	movlw	0
  2400  0381  1803               	skipnc
  2401  0382  3001               	movlw	1
  2402  0383  07B5               	addwf	___fldiv@b+3,f
  2403  0384  1C35               	btfss	___fldiv@b+3,0
  2404  0385  2BA5               	goto	l1898
  2405  0386  0832               	movf	___fldiv@b,w
  2406  0387  00B6               	movwf	??___fldiv
  2407  0388  0833               	movf	___fldiv@b+1,w
  2408  0389  00B7               	movwf	??___fldiv+1
  2409  038A  0834               	movf	___fldiv@b+2,w
  2410  038B  00B8               	movwf	??___fldiv+2
  2411  038C  0835               	movf	___fldiv@b+3,w
  2412  038D  00B9               	movwf	??___fldiv+3
  2413  038E  3001               	movlw	1
  2414  038F  00BA               	movwf	??___fldiv+4
  2415  0390                     u2495:
  2416  0390  0D39               	rlf	??___fldiv+3,w
  2417  0391  0CB9               	rrf	??___fldiv+3,f
  2418  0392  0CB8               	rrf	??___fldiv+2,f
  2419  0393  0CB7               	rrf	??___fldiv+1,f
  2420  0394  0CB6               	rrf	??___fldiv,f
  2421  0395  0BBA               	decfsz	??___fldiv+4,f
  2422  0396  2B90               	goto	u2495
  2423  0397  0839               	movf	??___fldiv+3,w
  2424  0398  00B5               	movwf	___fldiv@b+3
  2425  0399  0838               	movf	??___fldiv+2,w
  2426  039A  00B4               	movwf	___fldiv@b+2
  2427  039B  0837               	movf	??___fldiv+1,w
  2428  039C  00B3               	movwf	___fldiv@b+1
  2429  039D  0836               	movf	??___fldiv,w
  2430  039E  00B2               	movwf	___fldiv@b
  2431  039F  3001               	movlw	1
  2432  03A0  07C0               	addwf	___fldiv@new_exp,f
  2433  03A1  1803               	skipnc
  2434  03A2  0AC1               	incf	___fldiv@new_exp+1,f
  2435  03A3  3000               	movlw	0
  2436  03A4  07C1               	addwf	___fldiv@new_exp+1,f
  2437  03A5                     l1898:
  2438  03A5  0841               	movf	___fldiv@new_exp+1,w
  2439  03A6  3A80               	xorlw	128
  2440  03A7  00FF               	movwf	127
  2441  03A8  3080               	movlw	128
  2442  03A9  027F               	subwf	127,w
  2443  03AA  1D03               	skipz
  2444  03AB  2BAE               	goto	u2505
  2445  03AC  30FF               	movlw	255
  2446  03AD  0240               	subwf	___fldiv@new_exp,w
  2447  03AE                     u2505:
  2448  03AE  1C03               	skipc
  2449  03AF  2BBE               	goto	l1902
  2450  03B0  30FF               	movlw	255
  2451  03B1  1283               	bcf	3,5	;RP0=0, select bank0
  2452  03B2  1303               	bcf	3,6	;RP1=0, select bank0
  2453  03B3  00C0               	movwf	___fldiv@new_exp
  2454  03B4  3000               	movlw	0
  2455  03B5  00C1               	movwf	___fldiv@new_exp+1
  2456  03B6  3000               	movlw	0
  2457  03B7  00B5               	movwf	___fldiv@b+3
  2458  03B8  3000               	movlw	0
  2459  03B9  00B4               	movwf	___fldiv@b+2
  2460  03BA  3000               	movlw	0
  2461  03BB  00B3               	movwf	___fldiv@b+1
  2462  03BC  3000               	movlw	0
  2463  03BD  00B2               	movwf	___fldiv@b
  2464  03BE                     l1902:
  2465  03BE  1283               	bcf	3,5	;RP0=0, select bank0
  2466  03BF  1303               	bcf	3,6	;RP1=0, select bank0
  2467  03C0  0841               	movf	___fldiv@new_exp+1,w
  2468  03C1  3A80               	xorlw	128
  2469  03C2  00FF               	movwf	127
  2470  03C3  3080               	movlw	128
  2471  03C4  027F               	subwf	127,w
  2472  03C5  1D03               	skipz
  2473  03C6  2BC9               	goto	u2515
  2474  03C7  3001               	movlw	1
  2475  03C8  0240               	subwf	___fldiv@new_exp,w
  2476  03C9                     u2515:
  2477  03C9  1803               	skipnc
  2478  03CA  2BD8               	goto	l1910
  2479  03CB  1283               	bcf	3,5	;RP0=0, select bank0
  2480  03CC  1303               	bcf	3,6	;RP1=0, select bank0
  2481  03CD  01C0               	clrf	___fldiv@new_exp
  2482  03CE  01C1               	clrf	___fldiv@new_exp+1
  2483  03CF  3000               	movlw	0
  2484  03D0  00B5               	movwf	___fldiv@b+3
  2485  03D1  3000               	movlw	0
  2486  03D2  00B4               	movwf	___fldiv@b+2
  2487  03D3  3000               	movlw	0
  2488  03D4  00B3               	movwf	___fldiv@b+1
  2489  03D5  3000               	movlw	0
  2490  03D6  00B2               	movwf	___fldiv@b
  2491  03D7  01BF               	clrf	___fldiv@sign
  2492  03D8                     l1910:
  2493  03D8  1283               	bcf	3,5	;RP0=0, select bank0
  2494  03D9  1303               	bcf	3,6	;RP1=0, select bank0
  2495  03DA  0840               	movf	___fldiv@new_exp,w
  2496  03DB  00FF               	movwf	127
  2497  03DC  087F               	movf	127,w
  2498  03DD  00C6               	movwf	___fldiv@bexp
  2499  03DE  1C46               	btfss	___fldiv@bexp,0
  2500  03DF  2BE2               	goto	l1916
  2501  03E0  17B4               	bsf	___fldiv@b+2,7
  2502  03E1  2BE6               	goto	l579
  2503  03E2                     l1916:
  2504  03E2  307F               	movlw	127
  2505  03E3  00FF               	movwf	127
  2506  03E4  087F               	movf	127,w
  2507  03E5  05B4               	andwf	___fldiv@b+2,f
  2508  03E6                     l579:
  2509  03E6  0846               	movf	___fldiv@bexp,w
  2510  03E7  00B6               	movwf	??___fldiv
  2511  03E8  1003               	clrc
  2512  03E9  0C36               	rrf	??___fldiv,w
  2513  03EA  00FF               	movwf	127
  2514  03EB  087F               	movf	127,w
  2515  03EC  00B5               	movwf	___fldiv@b+3
  2516  03ED  2AAB               	goto	L2
  2517  03EE                     __end_of___fldiv:
  2518                           
  2519                           	psect	text9
  2520  06F1                     __ptext9:	
  2521 ;; *************** function _Antirrebote *****************
  2522 ;; Defined at:
  2523 ;;		line 216 in file "Main.c"
  2524 ;; Parameters:    Size  Location     Type
  2525 ;;		None
  2526 ;; Auto vars:     Size  Location     Type
  2527 ;;		None
  2528 ;; Return value:  Size  Location     Type
  2529 ;;                  1    wreg      void 
  2530 ;; Registers used:
  2531 ;;		wreg
  2532 ;; Tracked objects:
  2533 ;;		On entry : 300/0
  2534 ;;		On exit  : 300/0
  2535 ;;		Unchanged: 0/0
  2536 ;; Data sizes:     COMMON   BANK0   BANK1   BANK2
  2537 ;;      Params:         0       0       0       0
  2538 ;;      Locals:         0       0       0       0
  2539 ;;      Temps:          0       2       0       0
  2540 ;;      Totals:         0       2       0       0
  2541 ;;Total ram usage:        2 bytes
  2542 ;; Hardware stack levels used:    1
  2543 ;; Hardware stack levels required when called:    2
  2544 ;; This function calls:
  2545 ;;		Nothing
  2546 ;; This function is called by:
  2547 ;;		_Control
  2548 ;; This function uses a non-reentrant model
  2549 ;;
  2550                           
  2551                           
  2552                           ;psect for function _Antirrebote
  2553  06F1                     _Antirrebote:
  2554                           
  2555                           ;Main.c: 218:     _delay((unsigned long)((10)*(4000000/4000.0)));
  2556                           
  2557                           ;incstack = 0
  2558                           ; Regs used in _Antirrebote: [wreg]
  2559  06F1  300D               	movlw	13
  2560  06F2  1283               	bcf	3,5	;RP0=0, select bank0
  2561  06F3  1303               	bcf	3,6	;RP1=0, select bank0
  2562  06F4  00A1               	movwf	??_Antirrebote+1
  2563  06F5  30FB               	movlw	251
  2564  06F6  00A0               	movwf	??_Antirrebote
  2565  06F7                     u3817:
  2566  06F7  0BA0               	decfsz	??_Antirrebote,f
  2567  06F8  2EF7               	goto	u3817
  2568  06F9  0BA1               	decfsz	??_Antirrebote+1,f
  2569  06FA  2EF7               	goto	u3817
  2570  06FB  0000               	nop
  2571  06FC                     l2312:	
  2572                           ;Main.c: 219:     while(PORTBbits.RB3 || PORTBbits.RB2 || PORTBbits.RB4) _delay((unsigne
      +                          d long)((5)*(4000000/4000.0)));
  2573                           
  2574  06FC  1283               	bcf	3,5	;RP0=0, select bank0
  2575  06FD  1303               	bcf	3,6	;RP1=0, select bank0
  2576  06FE  1D86               	btfss	6,3	;volatile
  2577  06FF  2F0C               	goto	l2314
  2578  0700                     l2310:
  2579  0700  3007               	movlw	7
  2580  0701  1283               	bcf	3,5	;RP0=0, select bank0
  2581  0702  1303               	bcf	3,6	;RP1=0, select bank0
  2582  0703  00A1               	movwf	??_Antirrebote+1
  2583  0704  307C               	movlw	124
  2584  0705  00A0               	movwf	??_Antirrebote
  2585  0706                     u3827:
  2586  0706  0BA0               	decfsz	??_Antirrebote,f
  2587  0707  2F06               	goto	u3827
  2588  0708  0BA1               	decfsz	??_Antirrebote+1,f
  2589  0709  2F06               	goto	u3827
  2590  070A  2F0B               	nop2
  2591  070B  2EFC               	goto	l2312
  2592  070C                     l2314:
  2593  070C  1906               	btfsc	6,2	;volatile
  2594  070D  2F00               	goto	l2310
  2595  070E  1E06               	btfss	6,4	;volatile
  2596  070F  0008               	return
  2597  0710  2F00               	goto	l2310
  2598  0711                     __end_of_Antirrebote:
  2599                           
  2600                           	psect	text10
  2601  0491                     __ptext10:	
  2602 ;; *************** function _CargaDigitos *****************
  2603 ;; Defined at:
  2604 ;;		line 177 in file "Main.c"
  2605 ;; Parameters:    Size  Location     Type
  2606 ;;		None
  2607 ;; Auto vars:     Size  Location     Type
  2608 ;;  centena         1   18[BANK0 ] unsigned char 
  2609 ;;  decena          1   17[BANK0 ] unsigned char 
  2610 ;;  unidad          1   16[BANK0 ] unsigned char 
  2611 ;; Return value:  Size  Location     Type
  2612 ;;                  1    wreg      void 
  2613 ;; Registers used:
  2614 ;;		wreg, fsr0l, fsr0h, status,2, status,0, btemp+1, pclath, cstack
  2615 ;; Tracked objects:
  2616 ;;		On entry : 300/0
  2617 ;;		On exit  : 300/0
  2618 ;;		Unchanged: 0/0
  2619 ;; Data sizes:     COMMON   BANK0   BANK1   BANK2
  2620 ;;      Params:         0       0       0       0
  2621 ;;      Locals:         0       3       0       0
  2622 ;;      Temps:          0       2       0       0
  2623 ;;      Totals:         0       5       0       0
  2624 ;;Total ram usage:        5 bytes
  2625 ;; Hardware stack levels used:    1
  2626 ;; Hardware stack levels required when called:    3
  2627 ;; This function calls:
  2628 ;;		___awdiv
  2629 ;;		___bmul
  2630 ;;		___lbdiv
  2631 ;;		___wmul
  2632 ;; This function is called by:
  2633 ;;		_main
  2634 ;; This function uses a non-reentrant model
  2635 ;;
  2636                           
  2637                           
  2638                           ;psect for function _CargaDigitos
  2639  0491                     _CargaDigitos:
  2640                           
  2641                           ;Main.c: 179:     uint8_t unidad,decena,centena;;Main.c: 181:     centena = Duty/100;
  2642                           
  2643                           ;incstack = 0
  2644                           ; Regs used in _CargaDigitos: [wreg-fsr0h+status,2+status,0+btemp+1+pclath+cstack]
  2645  0491  3064               	movlw	100
  2646  0492  00FF               	movwf	127
  2647  0493  087F               	movf	127,w
  2648  0494  00A0               	movwf	___lbdiv@divisor
  2649  0495  0879               	movf	_Duty,w
  2650  0496  26D0               	fcall	___lbdiv
  2651  0497  00FF               	movwf	127
  2652  0498  087F               	movf	127,w
  2653  0499  00B2               	movwf	CargaDigitos@centena
  2654                           
  2655                           ;Main.c: 182:     decena = (Duty- (centena*100))/10;
  2656  049A  300A               	movlw	10
  2657  049B  00A6               	movwf	___awdiv@divisor
  2658  049C  3000               	movlw	0
  2659  049D  00A7               	movwf	___awdiv@divisor+1
  2660  049E  0832               	movf	CargaDigitos@centena,w
  2661  049F  00AE               	movwf	??_CargaDigitos
  2662  04A0  01AF               	clrf	??_CargaDigitos+1
  2663  04A1  082E               	movf	??_CargaDigitos,w
  2664  04A2  00A0               	movwf	___wmul@multiplier
  2665  04A3  082F               	movf	??_CargaDigitos+1,w
  2666  04A4  00A1               	movwf	___wmul@multiplier+1
  2667  04A5  309C               	movlw	156
  2668  04A6  00A2               	movwf	___wmul@multiplicand
  2669  04A7  30FF               	movlw	255
  2670  04A8  00A3               	movwf	___wmul@multiplicand+1
  2671  04A9  26AF               	fcall	___wmul
  2672  04AA  0879               	movf	_Duty,w
  2673  04AB  0720               	addwf	?___wmul,w
  2674  04AC  00A8               	movwf	___awdiv@dividend
  2675  04AD  0821               	movf	?___wmul+1,w
  2676  04AE  1803               	skipnc
  2677  04AF  0A21               	incf	?___wmul+1,w
  2678  04B0  00A9               	movwf	___awdiv@dividend+1
  2679  04B1  25DD               	fcall	___awdiv
  2680  04B2  0826               	movf	?___awdiv,w
  2681  04B3  00FF               	movwf	127
  2682  04B4  087F               	movf	127,w
  2683  04B5  00B1               	movwf	CargaDigitos@decena
  2684                           
  2685                           ;Main.c: 183:     unidad = Duty - (centena*100+decena*10);
  2686  04B6  309C               	movlw	156
  2687  04B7  00FF               	movwf	127
  2688  04B8  087F               	movf	127,w
  2689  04B9  00A0               	movwf	___bmul@multiplicand
  2690  04BA  0832               	movf	CargaDigitos@centena,w
  2691  04BB  2758               	fcall	___bmul
  2692  04BC  00AE               	movwf	??_CargaDigitos
  2693  04BD  30F6               	movlw	246
  2694  04BE  00FF               	movwf	127
  2695  04BF  087F               	movf	127,w
  2696  04C0  00A0               	movwf	___bmul@multiplicand
  2697  04C1  0831               	movf	CargaDigitos@decena,w
  2698  04C2  2758               	fcall	___bmul
  2699  04C3  072E               	addwf	??_CargaDigitos,w
  2700  04C4  0779               	addwf	_Duty,w
  2701  04C5  00FF               	movwf	127
  2702  04C6  087F               	movf	127,w
  2703  04C7  00B0               	movwf	CargaDigitos@unidad
  2704                           
  2705                           ;Main.c: 185:     if(Disp_E)
  2706  04C8  0877               	movf	_Disp_E,w
  2707  04C9  1D03               	btfss	3,2
  2708  04CA  2CF0               	goto	l2540
  2709  04CB  2D03               	goto	l87
  2710  04CC                     l89:	
  2711                           ;Main.c: 188:         {;Main.c: 189:             case 1:
  2712                           
  2713                           
  2714                           ;Main.c: 190:             {;Main.c: 191:                 PORTBbits.RB5=1,PORTBbits.RB6=0
      +                          ,PORTBbits.RB7=0;
  2715  04CC  1686               	bsf	6,5	;volatile
  2716  04CD  1306               	bcf	6,6	;volatile
  2717  04CE  1386               	bcf	6,7	;volatile
  2718                           
  2719                           ;Main.c: 192:                 PORTA &= 0b11110000;
  2720  04CF  30F0               	movlw	240
  2721  04D0  00FF               	movwf	127
  2722  04D1  087F               	movf	127,w
  2723  04D2  0585               	andwf	5,f	;volatile
  2724                           
  2725                           ;Main.c: 193:                 PORTA |= centena;
  2726  04D3  0832               	movf	CargaDigitos@centena,w	;volatile
  2727  04D4  00FF               	movwf	127
  2728  04D5  087F               	movf	127,w
  2729  04D6  0485               	iorwf	5,f	;volatile
  2730                           
  2731                           ;Main.c: 194:             break;
  2732  04D7  0008               	return
  2733  04D8                     l91:	
  2734                           ;Main.c: 195:             };Main.c: 196:             case 2:
  2735                           
  2736                           
  2737                           ;Main.c: 197:             {;Main.c: 198:                 PORTBbits.RB5=0,PORTBbits.RB6=1
      +                          ,PORTBbits.RB7=0;
  2738  04D8  1286               	bcf	6,5	;volatile
  2739  04D9  1706               	bsf	6,6	;volatile
  2740  04DA  1386               	bcf	6,7	;volatile
  2741                           
  2742                           ;Main.c: 199:                 PORTA &= 0b11110000;
  2743  04DB  30F0               	movlw	240
  2744  04DC  00FF               	movwf	127
  2745  04DD  087F               	movf	127,w
  2746  04DE  0585               	andwf	5,f	;volatile
  2747                           
  2748                           ;Main.c: 200:                 PORTA |= decena;
  2749  04DF  0831               	movf	CargaDigitos@decena,w	;volatile
  2750  04E0  00FF               	movwf	127
  2751  04E1  087F               	movf	127,w
  2752  04E2  0485               	iorwf	5,f	;volatile
  2753                           
  2754                           ;Main.c: 201:             break;
  2755  04E3  0008               	return
  2756  04E4                     l92:	
  2757                           ;Main.c: 202:             };Main.c: 203:             case 3:
  2758                           
  2759                           
  2760                           ;Main.c: 204:             {;Main.c: 205:                 PORTBbits.RB5=0,PORTBbits.RB6=0
      +                          ,PORTBbits.RB7=1;
  2761  04E4  1286               	bcf	6,5	;volatile
  2762  04E5  1306               	bcf	6,6	;volatile
  2763  04E6  1786               	bsf	6,7	;volatile
  2764                           
  2765                           ;Main.c: 206:                 PORTA &= 0b11110000;
  2766  04E7  30F0               	movlw	240
  2767  04E8  00FF               	movwf	127
  2768  04E9  087F               	movf	127,w
  2769  04EA  0585               	andwf	5,f	;volatile
  2770                           
  2771                           ;Main.c: 207:                 PORTA |= unidad;
  2772  04EB  0830               	movf	CargaDigitos@unidad,w	;volatile
  2773  04EC  00FF               	movwf	127
  2774  04ED  087F               	movf	127,w
  2775  04EE  0485               	iorwf	5,f	;volatile
  2776                           
  2777                           ;Main.c: 208:             break;
  2778  04EF  0008               	return
  2779  04F0                     l2540:
  2780  04F0  0862               	movf	_DigitoActivo,w	;volatile
  2781  04F1  00AE               	movwf	??_CargaDigitos
  2782  04F2  01AF               	clrf	??_CargaDigitos+1
  2783                           
  2784                           ; Switch on 2 bytes has been partitioned into a top level switch of size 1, and 1 sub-sw
      +                          itches
  2785                           ; Switch size 1, requested type "simple"
  2786                           ; Number of cases is 1, Range of values is 0 to 0
  2787                           ; switch strategies available:
  2788                           ; Name         Instructions Cycles
  2789                           ; simple_byte            4     3 (average)
  2790                           ; direct_byte            7     6 (fixed)
  2791                           ; jumptable            260     6 (fixed)
  2792                           ;	Chosen strategy is simple_byte
  2793  04F3  082F               	movf	??_CargaDigitos+1,w
  2794  04F4  3A00               	xorlw	0	; case 0
  2795  04F5  1903               	skipnz
  2796  04F6  2CF8               	goto	l2576
  2797  04F7  2D06               	goto	l94
  2798  04F8                     l2576:
  2799                           
  2800                           ; Switch size 1, requested type "simple"
  2801                           ; Number of cases is 3, Range of values is 1 to 3
  2802                           ; switch strategies available:
  2803                           ; Name         Instructions Cycles
  2804                           ; simple_byte           10     6 (average)
  2805                           ; direct_byte           12     9 (fixed)
  2806                           ; jumptable            263     9 (fixed)
  2807                           ;	Chosen strategy is simple_byte
  2808  04F8  082E               	movf	??_CargaDigitos,w
  2809  04F9  3A01               	xorlw	1	; case 1
  2810  04FA  1903               	skipnz
  2811  04FB  2CCC               	goto	l89
  2812  04FC  3A03               	xorlw	3	; case 2
  2813  04FD  1903               	skipnz
  2814  04FE  2CD8               	goto	l91
  2815  04FF  3A01               	xorlw	1	; case 3
  2816  0500  1903               	skipnz
  2817  0501  2CE4               	goto	l92
  2818  0502  2D06               	goto	l94
  2819  0503                     l87:	
  2820                           ;Main.c: 212:     else PORTBbits.RB5=0,PORTBbits.RB6=0,PORTBbits.RB7=0;
  2821                           
  2822  0503  1286               	bcf	6,5	;volatile
  2823  0504  1306               	bcf	6,6	;volatile
  2824  0505  1386               	bcf	6,7	;volatile
  2825  0506                     l94:
  2826  0506  0008               	return
  2827  0507                     __end_of_CargaDigitos:
  2828                           
  2829                           	psect	text11
  2830  06AF                     __ptext11:	
  2831 ;; *************** function ___wmul *****************
  2832 ;; Defined at:
  2833 ;;		line 15 in file "C:\Program Files (x86)\Microchip\xc8\pic\sources\c90\common\Umul16.c"
  2834 ;; Parameters:    Size  Location     Type
  2835 ;;  multiplier      2    0[BANK0 ] unsigned int 
  2836 ;;  multiplicand    2    2[BANK0 ] unsigned int 
  2837 ;; Auto vars:     Size  Location     Type
  2838 ;;  product         2    4[BANK0 ] unsigned int 
  2839 ;; Return value:  Size  Location     Type
  2840 ;;                  2    0[BANK0 ] unsigned int 
  2841 ;; Registers used:
  2842 ;;		wreg, status,2, status,0
  2843 ;; Tracked objects:
  2844 ;;		On entry : 300/0
  2845 ;;		On exit  : 300/0
  2846 ;;		Unchanged: 0/0
  2847 ;; Data sizes:     COMMON   BANK0   BANK1   BANK2
  2848 ;;      Params:         0       4       0       0
  2849 ;;      Locals:         0       2       0       0
  2850 ;;      Temps:          0       0       0       0
  2851 ;;      Totals:         0       6       0       0
  2852 ;;Total ram usage:        6 bytes
  2853 ;; Hardware stack levels used:    1
  2854 ;; Hardware stack levels required when called:    2
  2855 ;; This function calls:
  2856 ;;		Nothing
  2857 ;; This function is called by:
  2858 ;;		_CargaDigitos
  2859 ;; This function uses a non-reentrant model
  2860 ;;
  2861                           
  2862                           
  2863                           ;psect for function ___wmul
  2864  06AF                     ___wmul:
  2865                           
  2866                           ;incstack = 0
  2867                           ; Regs used in ___wmul: [wreg+status,2+status,0]
  2868  06AF  01A4               	clrf	___wmul@product
  2869  06B0  01A5               	clrf	___wmul@product+1
  2870  06B1                     l2320:
  2871  06B1  1C20               	btfss	___wmul@multiplier,0
  2872  06B2  2EB9               	goto	l206
  2873  06B3  0822               	movf	___wmul@multiplicand,w
  2874  06B4  07A4               	addwf	___wmul@product,f
  2875  06B5  1803               	skipnc
  2876  06B6  0AA5               	incf	___wmul@product+1,f
  2877  06B7  0823               	movf	___wmul@multiplicand+1,w
  2878  06B8  07A5               	addwf	___wmul@product+1,f
  2879  06B9                     l206:
  2880  06B9  3001               	movlw	1
  2881  06BA                     u3395:
  2882  06BA  1003               	clrc
  2883  06BB  0DA2               	rlf	___wmul@multiplicand,f
  2884  06BC  0DA3               	rlf	___wmul@multiplicand+1,f
  2885  06BD  3EFF               	addlw	-1
  2886  06BE  1D03               	skipz
  2887  06BF  2EBA               	goto	u3395
  2888  06C0  3001               	movlw	1
  2889  06C1                     u3405:
  2890  06C1  1003               	clrc
  2891  06C2  0CA1               	rrf	___wmul@multiplier+1,f
  2892  06C3  0CA0               	rrf	___wmul@multiplier,f
  2893  06C4  3EFF               	addlw	-1
  2894  06C5  1D03               	skipz
  2895  06C6  2EC1               	goto	u3405
  2896  06C7  0820               	movf	___wmul@multiplier,w
  2897  06C8  0421               	iorwf	___wmul@multiplier+1,w
  2898  06C9  1D03               	btfss	3,2
  2899  06CA  2EB1               	goto	l2320
  2900  06CB  0825               	movf	___wmul@product+1,w
  2901  06CC  00A1               	movwf	?___wmul+1
  2902  06CD  0824               	movf	___wmul@product,w
  2903  06CE  00A0               	movwf	?___wmul
  2904  06CF  0008               	return
  2905  06D0                     __end_of___wmul:
  2906                           
  2907                           	psect	text12
  2908  06D0                     __ptext12:	
  2909 ;; *************** function ___lbdiv *****************
  2910 ;; Defined at:
  2911 ;;		line 4 in file "C:\Program Files (x86)\Microchip\xc8\pic\sources\c90\common\lbdiv.c"
  2912 ;; Parameters:    Size  Location     Type
  2913 ;;  dividend        1    wreg     unsigned char 
  2914 ;;  divisor         1    0[BANK0 ] unsigned char 
  2915 ;; Auto vars:     Size  Location     Type
  2916 ;;  dividend        1    1[BANK0 ] unsigned char 
  2917 ;;  quotient        1    3[BANK0 ] unsigned char 
  2918 ;;  counter         1    2[BANK0 ] unsigned char 
  2919 ;; Return value:  Size  Location     Type
  2920 ;;                  1    wreg      unsigned char 
  2921 ;; Registers used:
  2922 ;;		wreg, status,2, status,0, btemp+1
  2923 ;; Tracked objects:
  2924 ;;		On entry : 300/0
  2925 ;;		On exit  : 300/0
  2926 ;;		Unchanged: 0/0
  2927 ;; Data sizes:     COMMON   BANK0   BANK1   BANK2
  2928 ;;      Params:         0       1       0       0
  2929 ;;      Locals:         0       3       0       0
  2930 ;;      Temps:          0       0       0       0
  2931 ;;      Totals:         0       4       0       0
  2932 ;;Total ram usage:        4 bytes
  2933 ;; Hardware stack levels used:    1
  2934 ;; Hardware stack levels required when called:    2
  2935 ;; This function calls:
  2936 ;;		Nothing
  2937 ;; This function is called by:
  2938 ;;		_CargaDigitos
  2939 ;; This function uses a non-reentrant model
  2940 ;;
  2941                           
  2942                           
  2943                           ;psect for function ___lbdiv
  2944  06D0                     ___lbdiv:
  2945                           
  2946                           ;incstack = 0
  2947                           ; Regs used in ___lbdiv: [wreg+status,2+status,0+btemp+1]
  2948                           ;___lbdiv@dividend stored from wreg
  2949  06D0  00A1               	movwf	___lbdiv@dividend
  2950  06D1  01A3               	clrf	___lbdiv@quotient
  2951  06D2  0820               	movf	___lbdiv@divisor,w
  2952  06D3  1903               	btfsc	3,2
  2953  06D4  2EEF               	goto	l2414
  2954  06D5  01A2               	clrf	___lbdiv@counter
  2955  06D6  0AA2               	incf	___lbdiv@counter,f
  2956  06D7                     l2402:
  2957  06D7  1BA0               	btfsc	___lbdiv@divisor,7
  2958  06D8  2EE0               	goto	l2404
  2959  06D9  1003               	clrc
  2960  06DA  0DA0               	rlf	___lbdiv@divisor,f
  2961  06DB  3001               	movlw	1
  2962  06DC  00FF               	movwf	127
  2963  06DD  087F               	movf	127,w
  2964  06DE  07A2               	addwf	___lbdiv@counter,f
  2965  06DF  2ED7               	goto	l2402
  2966  06E0                     l2404:
  2967  06E0  1003               	clrc
  2968  06E1  0DA3               	rlf	___lbdiv@quotient,f
  2969  06E2  0820               	movf	___lbdiv@divisor,w
  2970  06E3  0221               	subwf	___lbdiv@dividend,w
  2971  06E4  1C03               	skipc
  2972  06E5  2EEA               	goto	L3
  2973  06E6  0820               	movf	___lbdiv@divisor,w
  2974  06E7  02A1               	subwf	___lbdiv@dividend,f
  2975  06E8  1423               	bsf	___lbdiv@quotient,0
  2976  06E9  1003               	clrc
  2977  06EA                     L3:
  2978  06EA  0CA0               	rrf	___lbdiv@divisor,f
  2979  06EB  3001               	movlw	1
  2980  06EC  02A2               	subwf	___lbdiv@counter,f
  2981  06ED  1D03               	btfss	3,2
  2982  06EE  2EE0               	goto	l2404
  2983  06EF                     l2414:
  2984  06EF  0823               	movf	___lbdiv@quotient,w
  2985  06F0  0008               	return
  2986  06F1                     __end_of___lbdiv:
  2987                           
  2988                           	psect	text13
  2989  0758                     __ptext13:	
  2990 ;; *************** function ___bmul *****************
  2991 ;; Defined at:
  2992 ;;		line 4 in file "C:\Program Files (x86)\Microchip\xc8\pic\sources\c90\common\Umul8.c"
  2993 ;; Parameters:    Size  Location     Type
  2994 ;;  multiplier      1    wreg     unsigned char 
  2995 ;;  multiplicand    1    0[BANK0 ] unsigned char 
  2996 ;; Auto vars:     Size  Location     Type
  2997 ;;  multiplier      1    2[BANK0 ] unsigned char 
  2998 ;;  product         1    1[BANK0 ] unsigned char 
  2999 ;; Return value:  Size  Location     Type
  3000 ;;                  1    wreg      unsigned char 
  3001 ;; Registers used:
  3002 ;;		wreg, status,2, status,0, btemp+1
  3003 ;; Tracked objects:
  3004 ;;		On entry : 300/0
  3005 ;;		On exit  : 300/0
  3006 ;;		Unchanged: 0/0
  3007 ;; Data sizes:     COMMON   BANK0   BANK1   BANK2
  3008 ;;      Params:         0       1       0       0
  3009 ;;      Locals:         0       2       0       0
  3010 ;;      Temps:          0       0       0       0
  3011 ;;      Totals:         0       3       0       0
  3012 ;;Total ram usage:        3 bytes
  3013 ;; Hardware stack levels used:    1
  3014 ;; Hardware stack levels required when called:    2
  3015 ;; This function calls:
  3016 ;;		Nothing
  3017 ;; This function is called by:
  3018 ;;		_CargaDigitos
  3019 ;; This function uses a non-reentrant model
  3020 ;;
  3021                           
  3022                           
  3023                           ;psect for function ___bmul
  3024  0758                     ___bmul:
  3025                           
  3026                           ;incstack = 0
  3027                           ; Regs used in ___bmul: [wreg+status,2+status,0+btemp+1]
  3028                           ;___bmul@multiplier stored from wreg
  3029  0758  00A2               	movwf	___bmul@multiplier
  3030  0759  01A1               	clrf	___bmul@product
  3031  075A                     l2334:
  3032  075A  1C22               	btfss	___bmul@multiplier,0
  3033  075B  2F60               	goto	l2338
  3034  075C  0820               	movf	___bmul@multiplicand,w
  3035  075D  00FF               	movwf	127
  3036  075E  087F               	movf	127,w
  3037  075F  07A1               	addwf	___bmul@product,f
  3038  0760                     l2338:
  3039  0760  1003               	clrc
  3040  0761  0DA0               	rlf	___bmul@multiplicand,f
  3041  0762  1003               	clrc
  3042  0763  0CA2               	rrf	___bmul@multiplier,f
  3043  0764  0822               	movf	___bmul@multiplier,w
  3044  0765  1D03               	btfss	3,2
  3045  0766  2F5A               	goto	l2334
  3046  0767  0821               	movf	___bmul@product,w
  3047  0768  0008               	return
  3048  0769                     __end_of___bmul:
  3049                           
  3050                           	psect	text14
  3051  05DD                     __ptext14:	
  3052 ;; *************** function ___awdiv *****************
  3053 ;; Defined at:
  3054 ;;		line 5 in file "C:\Program Files (x86)\Microchip\xc8\pic\sources\c90\common\awdiv.c"
  3055 ;; Parameters:    Size  Location     Type
  3056 ;;  divisor         2    6[BANK0 ] int 
  3057 ;;  dividend        2    8[BANK0 ] int 
  3058 ;; Auto vars:     Size  Location     Type
  3059 ;;  quotient        2   12[BANK0 ] int 
  3060 ;;  sign            1   11[BANK0 ] unsigned char 
  3061 ;;  counter         1   10[BANK0 ] unsigned char 
  3062 ;; Return value:  Size  Location     Type
  3063 ;;                  2    6[BANK0 ] int 
  3064 ;; Registers used:
  3065 ;;		wreg, status,2, status,0, btemp+1
  3066 ;; Tracked objects:
  3067 ;;		On entry : 300/0
  3068 ;;		On exit  : 300/0
  3069 ;;		Unchanged: 0/0
  3070 ;; Data sizes:     COMMON   BANK0   BANK1   BANK2
  3071 ;;      Params:         0       4       0       0
  3072 ;;      Locals:         0       4       0       0
  3073 ;;      Temps:          0       0       0       0
  3074 ;;      Totals:         0       8       0       0
  3075 ;;Total ram usage:        8 bytes
  3076 ;; Hardware stack levels used:    1
  3077 ;; Hardware stack levels required when called:    2
  3078 ;; This function calls:
  3079 ;;		Nothing
  3080 ;; This function is called by:
  3081 ;;		_CargaDigitos
  3082 ;; This function uses a non-reentrant model
  3083 ;;
  3084                           
  3085                           
  3086                           ;psect for function ___awdiv
  3087  05DD                     ___awdiv:
  3088                           
  3089                           ;incstack = 0
  3090                           ; Regs used in ___awdiv: [wreg+status,2+status,0+btemp+1]
  3091  05DD  01AB               	clrf	___awdiv@sign
  3092  05DE  1FA7               	btfss	___awdiv@divisor+1,7
  3093  05DF  2DE7               	goto	l2356
  3094  05E0  09A6               	comf	___awdiv@divisor,f
  3095  05E1  09A7               	comf	___awdiv@divisor+1,f
  3096  05E2  0AA6               	incf	___awdiv@divisor,f
  3097  05E3  1903               	skipnz
  3098  05E4  0AA7               	incf	___awdiv@divisor+1,f
  3099  05E5  01AB               	clrf	___awdiv@sign
  3100  05E6  0AAB               	incf	___awdiv@sign,f
  3101  05E7                     l2356:
  3102  05E7  1FA9               	btfss	___awdiv@dividend+1,7
  3103  05E8  2DF2               	goto	l2362
  3104  05E9  09A8               	comf	___awdiv@dividend,f
  3105  05EA  09A9               	comf	___awdiv@dividend+1,f
  3106  05EB  0AA8               	incf	___awdiv@dividend,f
  3107  05EC  1903               	skipnz
  3108  05ED  0AA9               	incf	___awdiv@dividend+1,f
  3109  05EE  3001               	movlw	1
  3110  05EF  00FF               	movwf	127
  3111  05F0  087F               	movf	127,w
  3112  05F1  06AB               	xorwf	___awdiv@sign,f
  3113  05F2                     l2362:
  3114  05F2  01AC               	clrf	___awdiv@quotient
  3115  05F3  01AD               	clrf	___awdiv@quotient+1
  3116  05F4  0826               	movf	___awdiv@divisor,w
  3117  05F5  0427               	iorwf	___awdiv@divisor+1,w
  3118  05F6  1903               	btfsc	3,2
  3119  05F7  2E29               	goto	l2384
  3120  05F8  01AA               	clrf	___awdiv@counter
  3121  05F9  0AAA               	incf	___awdiv@counter,f
  3122  05FA                     l2372:
  3123  05FA  1BA7               	btfsc	___awdiv@divisor+1,7
  3124  05FB  2E08               	goto	l2374
  3125  05FC  3001               	movlw	1
  3126  05FD                     u3475:
  3127  05FD  1003               	clrc
  3128  05FE  0DA6               	rlf	___awdiv@divisor,f
  3129  05FF  0DA7               	rlf	___awdiv@divisor+1,f
  3130  0600  3EFF               	addlw	-1
  3131  0601  1D03               	skipz
  3132  0602  2DFD               	goto	u3475
  3133  0603  3001               	movlw	1
  3134  0604  00FF               	movwf	127
  3135  0605  087F               	movf	127,w
  3136  0606  07AA               	addwf	___awdiv@counter,f
  3137  0607  2DFA               	goto	l2372
  3138  0608                     l2374:
  3139  0608  3001               	movlw	1
  3140  0609                     u3495:
  3141  0609  1003               	clrc
  3142  060A  0DAC               	rlf	___awdiv@quotient,f
  3143  060B  0DAD               	rlf	___awdiv@quotient+1,f
  3144  060C  3EFF               	addlw	-1
  3145  060D  1D03               	skipz
  3146  060E  2E09               	goto	u3495
  3147  060F  0827               	movf	___awdiv@divisor+1,w
  3148  0610  0229               	subwf	___awdiv@dividend+1,w
  3149  0611  1D03               	skipz
  3150  0612  2E15               	goto	u3505
  3151  0613  0826               	movf	___awdiv@divisor,w
  3152  0614  0228               	subwf	___awdiv@dividend,w
  3153  0615                     u3505:
  3154  0615  1C03               	skipc
  3155  0616  2E1E               	goto	l2380
  3156  0617  0826               	movf	___awdiv@divisor,w
  3157  0618  02A8               	subwf	___awdiv@dividend,f
  3158  0619  0827               	movf	___awdiv@divisor+1,w
  3159  061A  1C03               	skipc
  3160  061B  03A9               	decf	___awdiv@dividend+1,f
  3161  061C  02A9               	subwf	___awdiv@dividend+1,f
  3162  061D  142C               	bsf	___awdiv@quotient,0
  3163  061E                     l2380:
  3164  061E  3001               	movlw	1
  3165  061F                     u3515:
  3166  061F  1003               	clrc
  3167  0620  0CA7               	rrf	___awdiv@divisor+1,f
  3168  0621  0CA6               	rrf	___awdiv@divisor,f
  3169  0622  3EFF               	addlw	-1
  3170  0623  1D03               	skipz
  3171  0624  2E1F               	goto	u3515
  3172  0625  3001               	movlw	1
  3173  0626  02AA               	subwf	___awdiv@counter,f
  3174  0627  1D03               	btfss	3,2
  3175  0628  2E08               	goto	l2374
  3176  0629                     l2384:
  3177  0629  082B               	movf	___awdiv@sign,w
  3178  062A  1903               	btfsc	3,2
  3179  062B  2E31               	goto	l2388
  3180  062C  09AC               	comf	___awdiv@quotient,f
  3181  062D  09AD               	comf	___awdiv@quotient+1,f
  3182  062E  0AAC               	incf	___awdiv@quotient,f
  3183  062F  1903               	skipnz
  3184  0630  0AAD               	incf	___awdiv@quotient+1,f
  3185  0631                     l2388:
  3186  0631  082D               	movf	___awdiv@quotient+1,w
  3187  0632  00A7               	movwf	?___awdiv+1
  3188  0633  082C               	movf	___awdiv@quotient,w
  3189  0634  00A6               	movwf	?___awdiv
  3190  0635  0008               	return
  3191  0636                     __end_of___awdiv:
  3192                           
  3193                           	psect	text15
  3194  0636                     __ptext15:	
  3195 ;; *************** function _ISR *****************
  3196 ;; Defined at:
  3197 ;;		line 223 in file "Main.c"
  3198 ;; Parameters:    Size  Location     Type
  3199 ;;		None
  3200 ;; Auto vars:     Size  Location     Type
  3201 ;;		None
  3202 ;; Return value:  Size  Location     Type
  3203 ;;                  1    wreg      void 
  3204 ;; Registers used:
  3205 ;;		wreg, status,2, status,0, btemp+1, pclath, cstack
  3206 ;; Tracked objects:
  3207 ;;		On entry : 0/0
  3208 ;;		On exit  : 300/0
  3209 ;;		Unchanged: 0/0
  3210 ;; Data sizes:     COMMON   BANK0   BANK1   BANK2
  3211 ;;      Params:         0       0       0       0
  3212 ;;      Locals:         0       0       0       0
  3213 ;;      Temps:          5       0       0       0
  3214 ;;      Totals:         5       0       0       0
  3215 ;;Total ram usage:        5 bytes
  3216 ;; Hardware stack levels used:    1
  3217 ;; Hardware stack levels required when called:    1
  3218 ;; This function calls:
  3219 ;;		_TimerReady
  3220 ;; This function is called by:
  3221 ;;		Interrupt level 1
  3222 ;; This function uses a non-reentrant model
  3223 ;;
  3224                           
  3225                           
  3226                           ;psect for function _ISR
  3227  0636                     _ISR:
  3228                           
  3229                           ;Main.c: 226:     if(INTF == 1)
  3230  0636  1C8B               	btfss	11,1	;volatile
  3231  0637  2E4B               	goto	i1l105
  3232                           
  3233                           ;Main.c: 227:     {;Main.c: 229:         INTF = 0;
  3234  0638  108B               	bcf	11,1	;volatile
  3235                           
  3236                           ;Main.c: 232:         SalTriac_E = 1;
  3237  0639  3001               	movlw	1
  3238  063A  00FF               	movwf	127
  3239  063B  087F               	movf	127,w
  3240  063C  00F8               	movwf	_SalTriac_E	;volatile
  3241                           
  3242                           ;Main.c: 233:         TimerSalTriac = ValorTimerTriac;
  3243  063D  0863               	movf	_ValorTimerTriac,w
  3244  063E  00F0               	movwf	??_ISR
  3245  063F  01F1               	clrf	??_ISR+1
  3246  0640  0870               	movf	??_ISR,w
  3247  0641  00F5               	movwf	_TimerSalTriac	;volatile
  3248  0642  0871               	movf	??_ISR+1,w
  3249  0643  00F6               	movwf	_TimerSalTriac+1	;volatile
  3250                           
  3251                           ;Main.c: 237:         if(Duty==100)
  3252  0644  3064               	movlw	100
  3253  0645  0679               	xorwf	_Duty,w
  3254  0646  1D03               	btfss	3,2
  3255  0647  2E4A               	goto	i1l106
  3256                           
  3257                           ;Main.c: 238:         {;Main.c: 239:             PORTBbits.RB1 = 1;
  3258  0648  1486               	bsf	6,1	;volatile
  3259                           
  3260                           ;Main.c: 240:         }
  3261  0649  2E4B               	goto	i1l105
  3262  064A                     i1l106:	
  3263                           ;Main.c: 241:         else PORTBbits.RB1 = 0;
  3264                           
  3265  064A  1086               	bcf	6,1	;volatile
  3266  064B                     i1l105:	
  3267                           ;Main.c: 242:     }
  3268                           
  3269                           
  3270                           ;Main.c: 244:     if(TMR1IF == 1)
  3271  064B  1C0C               	btfss	12,0	;volatile
  3272  064C  2E74               	goto	i1l112
  3273                           
  3274                           ;Main.c: 245:     {;Main.c: 247:         if(SalTriac_E==1 && TimerSalTriac!=0) TimerSalT
      +                          riac--;
  3275  064D  0378               	decf	_SalTriac_E,w	;volatile
  3276  064E  1D03               	btfss	3,2
  3277  064F  2E5A               	goto	i1l2070
  3278  0650  0875               	movf	_TimerSalTriac,w	;volatile
  3279  0651  0476               	iorwf	_TimerSalTriac+1,w	;volatile
  3280  0652  1903               	btfsc	3,2
  3281  0653  2E5A               	goto	i1l2070
  3282  0654  3001               	movlw	1
  3283  0655  02F5               	subwf	_TimerSalTriac,f	;volatile
  3284  0656  3000               	movlw	0
  3285  0657  1C03               	skipc
  3286  0658  03F6               	decf	_TimerSalTriac+1,f	;volatile
  3287  0659  02F6               	subwf	_TimerSalTriac+1,f	;volatile
  3288  065A                     i1l2070:
  3289                           
  3290                           ;Main.c: 248:         if(TimerBlink!=0) TimerBlink--;
  3291  065A  0860               	movf	_TimerBlink,w	;volatile
  3292  065B  0461               	iorwf	_TimerBlink+1,w	;volatile
  3293  065C  1903               	btfsc	3,2
  3294  065D  2E64               	goto	i1l2074
  3295  065E  3001               	movlw	1
  3296  065F  02E0               	subwf	_TimerBlink,f	;volatile
  3297  0660  3000               	movlw	0
  3298  0661  1C03               	skipc
  3299  0662  03E1               	decf	_TimerBlink+1,f	;volatile
  3300  0663  02E1               	subwf	_TimerBlink+1,f	;volatile
  3301  0664                     i1l2074:
  3302                           
  3303                           ;Main.c: 249:         if(TimerMultiplexacion!=0) TimerMultiplexacion--;
  3304  0664  085E               	movf	_TimerMultiplexacion,w	;volatile
  3305  0665  045F               	iorwf	_TimerMultiplexacion+1,w	;volatile
  3306  0666  1903               	btfsc	3,2
  3307  0667  2E6E               	goto	i1l2078
  3308  0668  3001               	movlw	1
  3309  0669  02DE               	subwf	_TimerMultiplexacion,f	;volatile
  3310  066A  3000               	movlw	0
  3311  066B  1C03               	skipc
  3312  066C  03DF               	decf	_TimerMultiplexacion+1,f	;volatile
  3313  066D  02DF               	subwf	_TimerMultiplexacion+1,f	;volatile
  3314  066E                     i1l2078:
  3315                           
  3316                           ;Main.c: 252:         TimerReady();
  3317  066E  267D               	fcall	_TimerReady
  3318                           
  3319                           ;Main.c: 255:         TMR1 = 65411;
  3320  066F  30FF               	movlw	255
  3321  0670  008F               	movwf	15	;volatile
  3322  0671  3083               	movlw	131
  3323  0672  008E               	movwf	14	;volatile
  3324                           
  3325                           ;Main.c: 256:         TMR1IF = 0;
  3326  0673  100C               	bcf	12,0	;volatile
  3327  0674                     i1l112:
  3328  0674  0874               	movf	??_ISR+4,w
  3329  0675  00FF               	movwf	127
  3330  0676  0873               	movf	??_ISR+3,w
  3331  0677  008A               	movwf	10
  3332  0678  0E72               	swapf	(??_ISR+2)^(0+4294967168),w
  3333  0679  0083               	movwf	3
  3334  067A  0EFE               	swapf	126,f
  3335  067B  0E7E               	swapf	126,w
  3336  067C  0009               	retfie
  3337  067D                     __end_of_ISR:
  3338                           
  3339                           	psect	intentry
  3340  0004                     __pintentry:	
  3341                           ;incstack = 0
  3342                           ; Regs used in _ISR: [wreg+status,2+status,0+btemp+1+pclath+cstack]
  3343                           
  3344  0004                     interrupt_function:
  3345  007E                     saved_w	set	btemp
  3346  0004  00FE               	movwf	btemp
  3347  0005  0E03               	swapf	3,w
  3348  0006  00F2               	movwf	??_ISR+2
  3349  0007  080A               	movf	10,w
  3350  0008  00F3               	movwf	??_ISR+3
  3351  0009  1283               	bcf	3,5	;RP0=0, select bank0
  3352  000A  1303               	bcf	3,6	;RP1=0, select bank0
  3353  000B  087F               	movf	btemp+1,w
  3354  000C  00F4               	movwf	??_ISR+4
  3355  000D  2E36               	ljmp	_ISR
  3356                           
  3357                           	psect	text16
  3358  067D                     __ptext16:	
  3359 ;; *************** function _TimerReady *****************
  3360 ;; Defined at:
  3361 ;;		line 261 in file "Main.c"
  3362 ;; Parameters:    Size  Location     Type
  3363 ;;		None
  3364 ;; Auto vars:     Size  Location     Type
  3365 ;;		None
  3366 ;; Return value:  Size  Location     Type
  3367 ;;                  1    wreg      void 
  3368 ;; Registers used:
  3369 ;;		wreg, status,2, status,0, btemp+1
  3370 ;; Tracked objects:
  3371 ;;		On entry : 300/0
  3372 ;;		On exit  : 300/0
  3373 ;;		Unchanged: 0/0
  3374 ;; Data sizes:     COMMON   BANK0   BANK1   BANK2
  3375 ;;      Params:         0       0       0       0
  3376 ;;      Locals:         0       0       0       0
  3377 ;;      Temps:          0       0       0       0
  3378 ;;      Totals:         0       0       0       0
  3379 ;;Total ram usage:        0 bytes
  3380 ;; Hardware stack levels used:    1
  3381 ;; This function calls:
  3382 ;;		Nothing
  3383 ;; This function is called by:
  3384 ;;		_ISR
  3385 ;; This function uses a non-reentrant model
  3386 ;;
  3387                           
  3388                           
  3389                           ;psect for function _TimerReady
  3390  067D                     _TimerReady:
  3391                           
  3392                           ;Main.c: 264:     if(!TimerSalTriac)
  3393                           
  3394                           ;incstack = 0
  3395                           ; Regs used in _TimerReady: [wreg+status,2+status,0+btemp+1]
  3396  067D  0875               	movf	_TimerSalTriac,w	;volatile
  3397  067E  0476               	iorwf	_TimerSalTriac+1,w	;volatile
  3398  067F  1D03               	btfss	3,2
  3399  0680  2E85               	goto	i1l2024
  3400                           
  3401                           ;Main.c: 265:     {;Main.c: 267:         TimerSalTriac = 0;
  3402  0681  01F5               	clrf	_TimerSalTriac	;volatile
  3403  0682  01F6               	clrf	_TimerSalTriac+1	;volatile
  3404                           
  3405                           ;Main.c: 268:         SalTriac_E = 0;
  3406  0683  01F8               	clrf	_SalTriac_E	;volatile
  3407                           
  3408                           ;Main.c: 270:         PORTBbits.RB1 = 1;
  3409  0684  1486               	bsf	6,1	;volatile
  3410  0685                     i1l2024:
  3411                           
  3412                           ;Main.c: 273:     if(!TimerBlink)
  3413  0685  0860               	movf	_TimerBlink,w	;volatile
  3414  0686  0461               	iorwf	_TimerBlink+1,w	;volatile
  3415  0687  1D03               	btfss	3,2
  3416  0688  2E99               	goto	i1l2030
  3417                           
  3418                           ;Main.c: 274:     {;Main.c: 275:         PORTAbits.RA7 = !PORTAbits.RA7;
  3419  0689  1003               	clrc
  3420  068A  1F85               	btfss	5,7	;volatile
  3421  068B  1403               	setc
  3422  068C  1C03               	btfss	3,0
  3423  068D  2E92               	goto	u278_20
  3424  068E  1283               	bcf	3,5	;RP0=0, select bank0
  3425  068F  1303               	bcf	3,6	;RP1=0, select bank0
  3426  0690  1785               	bsf	5,7	;volatile
  3427  0691  2E95               	goto	i1l2028
  3428  0692                     u278_20:
  3429  0692  1283               	bcf	3,5	;RP0=0, select bank0
  3430  0693  1303               	bcf	3,6	;RP1=0, select bank0
  3431  0694  1385               	bcf	5,7	;volatile
  3432  0695                     i1l2028:
  3433                           
  3434                           ;Main.c: 276:         TimerBlink = 500;
  3435  0695  30F4               	movlw	244
  3436  0696  00E0               	movwf	_TimerBlink	;volatile
  3437  0697  3001               	movlw	1
  3438  0698  00E1               	movwf	_TimerBlink+1	;volatile
  3439  0699                     i1l2030:
  3440                           
  3441                           ;Main.c: 279:     if(!TimerMultiplexacion)
  3442  0699  085E               	movf	_TimerMultiplexacion,w	;volatile
  3443  069A  045F               	iorwf	_TimerMultiplexacion+1,w	;volatile
  3444  069B  1D03               	btfss	3,2
  3445  069C  0008               	return
  3446                           
  3447                           ;Main.c: 280:     {;Main.c: 281:         if(DigitoActivo < 3) DigitoActivo+=1;
  3448  069D  3003               	movlw	3
  3449  069E  0262               	subwf	_DigitoActivo,w	;volatile
  3450  069F  1803               	skipnc
  3451  06A0  2EA6               	goto	i1l2036
  3452  06A1  3001               	movlw	1
  3453  06A2  00FF               	movwf	127
  3454  06A3  087F               	movf	127,w
  3455  06A4  07E2               	addwf	_DigitoActivo,f	;volatile
  3456  06A5  2EAA               	goto	i1l2038
  3457  06A6                     i1l2036:
  3458  06A6  3001               	movlw	1
  3459  06A7  00FF               	movwf	127
  3460  06A8  087F               	movf	127,w
  3461  06A9  00E2               	movwf	_DigitoActivo	;volatile
  3462  06AA                     i1l2038:
  3463                           
  3464                           ;Main.c: 284:         TimerMultiplexacion = 2;
  3465  06AA  3002               	movlw	2
  3466  06AB  00DE               	movwf	_TimerMultiplexacion	;volatile
  3467  06AC  3000               	movlw	0
  3468  06AD  00DF               	movwf	_TimerMultiplexacion+1	;volatile
  3469  06AE  0008               	return
  3470  06AF                     __end_of_TimerReady:
  3471  007E                     btemp	set	126	;btemp
  3472  007E                     wtemp0	set	126
  3473                           
  3474                           	psect	config
  3475                           
  3476                           ;Config register CONFIG @ 0x2007
  3477                           ;	Oscillator Selection bits
  3478                           ;	FOSC = INTOSCIO, INTOSC oscillator: I/O function on RA6/OSC2/CLKOUT pin, I/O function 
      +                          on RA7/OSC1/CLKIN
  3479                           ;	Watchdog Timer Enable bit
  3480                           ;	WDTE = OFF, WDT disabled
  3481                           ;	Power-up Timer Enable bit
  3482                           ;	PWRTE = ON, PWRT enabled
  3483                           ;	RA5/MCLR/VPP Pin Function Select bit
  3484                           ;	MCLRE = ON, RA5/MCLR/VPP pin function is MCLR
  3485                           ;	Brown-out Detect Enable bit
  3486                           ;	BOREN = OFF, BOD disabled
  3487                           ;	Low-Voltage Programming Enable bit
  3488                           ;	LVP = OFF, RB4/PGM pin has digital I/O function, HV on MCLR must be used for programmi
      +                          ng
  3489                           ;	Data EE Memory Code Protection bit
  3490                           ;	CPD = OFF, Data memory code protection off
  3491                           ;	Flash Program Memory Code Protection bit
  3492                           ;	CP = OFF, Code protection off
  3493  2007                     	org	8199
  3494  2007  3F30               	dw	16176

Data Sizes:
    Strings     0
    Constant    0
    Data        5
    BSS         5
    Persistent  1
    Stack       0

Auto Spaces:
    Space          Size  Autos    Used
    COMMON           14      5      10
    BANK0            80     62      68
    BANK1            80      0       0
    BANK2            48      0       0

Pointer List with Targets:

    None.

Critical Paths under _main in COMMON

    None.

Critical Paths under _ISR in COMMON

    None.

Critical Paths under _main in BANK0

    _main->_Control
    _Control->___fltol
    ___fltol->___flsub
    ___flsub->___fldiv
    ___fldiv->___xxtofl
    _CargaDigitos->___awdiv
    ___awdiv->___wmul

Critical Paths under _ISR in BANK0

    None.

Critical Paths under _main in BANK1

    None.

Critical Paths under _ISR in BANK1

    None.

Critical Paths under _main in BANK2

    None.

Critical Paths under _ISR in BANK2

    None.

Call Graph Tables:

 ---------------------------------------------------------------------------------
 (Depth) Function   	        Calls       Base Space   Used Autos Params    Refs
 ---------------------------------------------------------------------------------
 (0) _main                                                 0     0      0    7294
                       _CargaDigitos
                            _Control
                    _InOutPines_Init
                   _Perifericos_Init
 ---------------------------------------------------------------------------------
 (1) _Perifericos_Init                                     0     0      0       0
 ---------------------------------------------------------------------------------
 (1) _InOutPines_Init                                      0     0      0       0
 ---------------------------------------------------------------------------------
 (1) _Control                                              4     4      0    5511
                                             58 BANK0      4     4      0
                        _Antirrebote
                            ___fldiv
                            ___flsub
                            ___fltol
                           ___xxtofl
 ---------------------------------------------------------------------------------
 (2) ___xxtofl                                            14    10      4     566
                                              0 BANK0     14    10      4
 ---------------------------------------------------------------------------------
 (2) ___fltol                                             10     6      4     305
                                             48 BANK0     10     6      4
                            ___fldiv (ARG)
                            ___flsub (ARG)
                           ___xxtofl (ARG)
 ---------------------------------------------------------------------------------
 (2) ___flsub                                              8     0      8    3367
                                             40 BANK0      8     0      8
                            ___fladd
                            ___fldiv (ARG)
                           ___xxtofl (ARG)
 ---------------------------------------------------------------------------------
 (3) ___fladd                                             20    12      8    3122
                                              0 BANK0     20    12      8
 ---------------------------------------------------------------------------------
 (2) ___fldiv                                             26    18      8    1273
                                             14 BANK0     26    18      8
                           ___xxtofl (ARG)
 ---------------------------------------------------------------------------------
 (2) _Antirrebote                                          2     2      0       0
                                              0 BANK0      2     2      0
 ---------------------------------------------------------------------------------
 (1) _CargaDigitos                                         5     5      0    1783
                                             14 BANK0      5     5      0
                            ___awdiv
                             ___bmul
                            ___lbdiv
                             ___wmul
 ---------------------------------------------------------------------------------
 (2) ___wmul                                               6     2      4     316
                                              0 BANK0      6     2      4
 ---------------------------------------------------------------------------------
 (2) ___lbdiv                                              4     3      1     331
                                              0 BANK0      4     3      1
 ---------------------------------------------------------------------------------
 (2) ___bmul                                               3     2      1     316
                                              0 BANK0      3     2      1
 ---------------------------------------------------------------------------------
 (2) ___awdiv                                              8     4      4     625
                                              6 BANK0      8     4      4
                             ___wmul (ARG)
 ---------------------------------------------------------------------------------
 Estimated maximum stack depth 3
 ---------------------------------------------------------------------------------
 (Depth) Function   	        Calls       Base Space   Used Autos Params    Refs
 ---------------------------------------------------------------------------------
 (4) _ISR                                                  5     5      0       0
                                              0 COMMON     5     5      0
                         _TimerReady
 ---------------------------------------------------------------------------------
 (5) _TimerReady                                           0     0      0       0
 ---------------------------------------------------------------------------------
 Estimated maximum stack depth 5
 ---------------------------------------------------------------------------------

 Call Graph Graphs:

 _main (ROOT)
   _CargaDigitos
     ___awdiv
       ___wmul (ARG)
     ___bmul
     ___lbdiv
     ___wmul
   _Control
     _Antirrebote
     ___fldiv
       ___xxtofl (ARG)
     ___flsub
       ___fladd
       ___fldiv (ARG)
         ___xxtofl (ARG)
       ___xxtofl (ARG)
     ___fltol
       ___fldiv (ARG)
         ___xxtofl (ARG)
       ___flsub (ARG)
         ___fladd
         ___fldiv (ARG)
           ___xxtofl (ARG)
         ___xxtofl (ARG)
       ___xxtofl (ARG)
     ___xxtofl
   _InOutPines_Init
   _Perifericos_Init

 _ISR (ROOT)
   _TimerReady

 Address spaces:
Name               Size   Autos  Total    Cost      Usage
SFR3                 0      0       0       4        0.0%
BITSFR3              0      0       0       4        0.0%
BANK2               30      0       0       9        0.0%
BITBANK2            30      0       0       8        0.0%
SFR2                 0      0       0       5        0.0%
BITSFR2              0      0       0       5        0.0%
BANK1               50      0       0       7        0.0%
BITBANK1            50      0       0       6        0.0%
SFR1                 0      0       0       2        0.0%
BITSFR1              0      0       0       2        0.0%
BANK0               50     3E      44       3       85.0%
BITBANK0            50      0       0       5        0.0%
SFR0                 0      0       0       1        0.0%
BITSFR0              0      0       0       1        0.0%
COMMON               E      5       A       1       71.4%
BITCOMMON            E      0       0       0        0.0%
CODE                 0      0       0       0        0.0%
DATA                 0      0      4E      10        0.0%
ABS                  0      0      4E       4        0.0%
NULL                 0      0       0       0        0.0%
STACK                0      0       0       2        0.0%
EEDATA              80      0       0       0        0.0%


Microchip Technology PIC Macro Assembler V2.20 build 20200408173844 
Symbol Table                                                                                   Fri Feb 19 13:22:21 2021

             ___fldiv@aexp 0047               ___fldiv@bexp 0046               ___fldiv@sign 003F  
           ___bmul@product 0021                         l82 052C                         l91 04D8  
                       l92 04E4                         l77 0512                         l94 0506  
                       l87 0503                         l79 051B                         l89 04CC  
             ___awdiv@sign 002B        ___wmul@multiplicand 0022                        l206 06B9  
                      l503 0109                        l520 01C2                        l505 00E7  
                      l541 0242                        l555 0299                        l652 0461  
                      l653 046B                        l399 05BF                        l639 040B  
                      l579 03E6                        l499 0070                        _ISR 0636  
                     ?_ISR 0070               ___fltol@exp1 0059                       l2120 003B  
                     l2124 003E                       l2310 0700                       l2302 023E  
                     l2222 0138                       l2214 0117                       l2206 0103  
                     l2126 0046                       l2320 06B1                       l2312 06FC  
                     l2224 013A                       l2232 014A                       l2144 0065  
                     l2402 06D7                       l2314 070C                       l2154 007A  
                     l2404 06E0                       l2260 01E3                       l2252 01D4  
                     l2244 01B4                       l2148 0068                       l2334 075A  
                     l2414 06EF                       l1710 057B                       l2430 0403  
                     l2184 00B6                       l2504 0526                       l2362 05F2  
                     l2338 0760                       l2274 01F5                       l2266 01EA  
                     l1730 05AB                       l1714 0584                       l2450 044B  
                     l2442 041E                       l2522 0533                       l2380 061E  
                     l2372 05FA                       l2356 05E7                       l2540 04F0  
                     l1812 028E                       l2268 01EC                       l2196 00F2  
                     l2444 0430                       l2436 041A                       l2516 0527  
                     l2374 0608                       l1910 03D8                       l1902 03BE  
                     l2278 01F7                       l2198 00F4                       l1742 05CE  
                     l1734 05BB                       l2454 045F                       l2384 0629  
                     l1832 02C4                       l1816 0291                       l2288 022A  
                     l2456 0450                       l2552 076F                       l1826 02B8  
                     l2298 023A                       l2388 0631                       l1916 03E2  
                     l1852 0313                       l1860 02EF                       l2468 0488  
                     l1862 0337                       l2576 04F8                       l1792 0268  
                     l1858 0332                       l1884 0371                       l1876 033D  
                     l1796 026B                       l1878 035A                       l1798 0273  
                     l1888 0373                       l1898 03A5                       u3000 00D7  
                     u2115 058D                       u2145 05AC                       u3131 0175  
                     u3123 015C                       u3115 013E                       u3035 00F8  
                     u3140 0189                       u3132 0176                       u2405 0341  
                     u3141 018A                       u3133 017B                       u3142 018F  
                     u3134 017C                       u2335 02F8                       u3143 0190  
                     u3135 0181                       u2175 05C4                       u3136 0182  
                     u2505 03AE                       u2425 034C                       u2345 0301  
                     u2515 03C9                       u3405 06C1                       u2365 030C  
                     u2375 0321                       u3505 0615                       u3185 01D6  
                     u3515 061F                       u3285 0214                       u2495 0390  
                     u3615 0427                       u3475 05FD                       u3395 06BA  
                     u3635 0443                       _INTF 0059                       u3495 0609  
                     u3655 0458                       u3817 06F7                       u3770 0522  
                     u3827 0706                       u3780 0523                       u2990 00D6  
                     u3695 0473                       u2985 00CA                       _TMR1 000E  
                     _Duty 0079                       _main 0769                       btemp 007E  
                     start 000E            ___fldiv@new_exp 0040          ___bmul@multiplier 0022  
          __end_of_Control 0572        CargaDigitos@centena 0032                      ??_ISR 0070  
      __end_of_Antirrebote 0711      __size_of_CargaDigitos 0076              ___fltol@sign1 0058  
          __end_of___fladd 024D                      ?_main 0070            __end_of___fldiv 03EE  
          __end_of___awdiv 0636            __end_of___lbdiv 06F1            __end_of___flsub 072D  
          __end_of___fltol 05DD                      _CMCON 001F            ___awdiv@divisor 0026  
  __end_of_InOutPines_Init 0745                      i1l112 0674                      i1l105 064B  
                    i1l106 064A            ___awdiv@counter 002A                      _PORTA 0005  
                    pclath 000A                      status 0003                      wtemp0 007E  
          ___lbdiv@divisor 0020            ___lbdiv@counter 0022               _CargaDigitos 0491  
          __initialization 000F               __end_of_main 0772                 _SalTriac_E 0078  
                   ??_main 005E           _Perifericos_Init 0745           ___awdiv@dividend 0028  
                   i1l2030 0699                     i1l2024 0685                     i1l2036 06A6  
                   i1l2028 0695                     i1l2038 06AA                     i1l2070 065A  
                   i1l2074 0664                     i1l2078 066E                     u278_20 0692  
                   _TMR1IE 0460                     _TMR1IF 0060                     _TMR1CS 0081  
                   _TMR1ON 0080           __end_of___xxtofl 0491                  ??_Control 005A  
                   _Disp_E 0077                _Antirrebote 06F1                     ___bmul 0758  
                ??___fladd 0028                     ___wmul 06AF                  ??___fldiv 0036  
                ??___awdiv 002A                  ??___lbdiv 0021                 _TimerBlink 0060  
                ??___flsub 0050                  ??___fltol 0054                 _TimerReady 067D  
         ___awdiv@quotient 002C           ?_InOutPines_Init 0070                     saved_w 007E  
         ___lbdiv@dividend 0021               ___xxtofl@arg 002A               ___xxtofl@exp 0029  
             ___xxtofl@val 0020    __end_of__initialization 001E                 ___fltol@f1 0050  
      ___bmul@multiplicand 0020             __pcstackCOMMON 0070               __pidataBANK0 0772  
             _DigitoActivo 0062           ___lbdiv@quotient 0023             _OPTION_REGbits 0081  
               __pbssBANK0 0063                 __pnvCOMMON 0079        _TimerMultiplexacion 005E  
               __pmaintext 0769                    ?___bmul 0020                    ?___wmul 0020  
               __pintentry 0004                ?_TimerReady 0070                  ?___xxtofl 0020  
                  _Control 0507   __end_of_Perifericos_Init 0758            __size_of___bmul 0011  
                  ___fladd 0020                    ___fldiv 024D                    ___awdiv 05DD  
                  ___lbdiv 06D0                    ___flsub 0711                    ___fltol 0572  
          __size_of___wmul 0021                    __ptext1 0745                    __ptext2 072D  
                  __ptext3 0507                    __ptext4 03EE                    __ptext5 0572  
                  __ptext6 0711                    __ptext7 0020                    __ptext8 024D  
                  __ptext9 06F1               __size_of_ISR 0047                  _T1CONbits 0010  
               ??___xxtofl 0024       end_of_initialization 001E        __size_of_TimerReady 0032  
             ?_Antirrebote 0070                  _PORTAbits 0005                  _PORTBbits 0006  
          _ValorTimerTriac 0063                ___fladd@grs 0033              ___xxtofl@sign 0028  
                _TRISAbits 0085                  _TRISBbits 0086                ___fldiv@grs 0042  
              ___fldiv@rem 003B         CargaDigitos@decena 0031             __end_of___bmul 0769  
           __end_of___wmul 06D0         CargaDigitos@unidad 0030        start_initialization 000F  
              __end_of_ISR 067D   __size_of_InOutPines_Init 0018                   ??___bmul 0021  
                 ??___wmul 0024               ??_TimerReady 0070                __pdataBANK0 005E  
                ___fladd@a 0024                  ___fladd@b 0020                  ___fldiv@a 002E  
                ___fldiv@b 0032                __pbssCOMMON 0075                  ___flsub@a 0048  
                ___flsub@b 004C                  ___latbits 0000              __pcstackBANK0 0020  
        __size_of___xxtofl 00A3         __end_of_TimerReady 06AF                   ?_Control 0070  
            ?_CargaDigitos 0070          ?_Perifericos_Init 0070       __size_of_Antirrebote 0020  
                 ?___fladd 0020                   ?___fldiv 002E                   ?___awdiv 0026  
                 ?___lbdiv 0020                   ?___flsub 0048                   ?___fltol 0050  
            _TimerSalTriac 0075         ??_Perifericos_Init 0020          interrupt_function 0004  
           ___wmul@product 0024             ??_CargaDigitos 002E          ??_InOutPines_Init 0020  
        ___wmul@multiplier 0020           __size_of_Control 006B           __size_of___fladd 022D  
         __size_of___fldiv 01A1           __size_of___awdiv 0059           __size_of___lbdiv 0021  
         __size_of___flsub 001C           __size_of___fltol 006B                   ___xxtofl 03EE  
                 __ptext10 0491                   __ptext11 06AF                   __ptext12 06D0  
                 __ptext13 0758                   __ptext14 05DD                   __ptext15 0636  
                 __ptext16 067D              __size_of_main 0009                 _INTCONbits 000B  
     __end_of_CargaDigitos 0507                   intlevel1 0000  __size_of_Perifericos_Init 0013  
          _InOutPines_Init 072D              ___fladd@signs 0030               ___fladd@aexp 0031  
             ___fladd@bexp 0032              ??_Antirrebote 0020  
