MPASM 5.87                          MAIN.ASM   6-3-2020  0:37:53         PAGE  1


LOC  OBJECT CODE     LINE SOURCE TEXT
  VALUE

                      00001 #INCLUDE    <P16F84A.INC>
                      00001         LIST
                      00002 
                      00003 ;==========================================================================
                      00004 ; Build date : Jan 06 2020
                      00005 ;  MPASM PIC16F84A processor include
                      00006 ; 
                      00007 ;  (c) Copyright 1999-2020 Microchip Technology, All rights reserved
                      00008 ;==========================================================================
                      00009 
                      00209         LIST
Warning[205]: Found directive in column 1. (LIST)
                      00002 LIST P=16F84A
                      00003 
Warning[205]: Found directive in column 1. (ORG)
                      00004 ORG 0
0000   1683           00005     BSF     STATUS,RP0      ;BANCO 1
Message[302]: Register in operand not in bank 0.  Ensure that bank bits are correct.
0001   0186           00006     CLRF    TRISB           ;PUERTO B SALIDA
Message[302]: Register in operand not in bank 0.  Ensure that bank bits are correct.
0002   1585           00007     BSF     TRISA,3         ;A3 ENTRADA
0003   1283           00008     BCF     STATUS,RP0      ;BANCO 0 
                      00009     
0004   0186           00010     CLRF    PORTB           ;PUERTO B EN 0
0005   3009           00011     MOVLW   D'9'            ;VALOR DE 9
0006   0086           00012     MOVWF   PORTB           ;CARGAR EL VALOR 9 EN EL PUERTO B
                      00013     
0007                  00014 PROCESO:
0007   1D85           00015     BTFSS   PORTA,3         ;A3=1?
0008   2???           00016     GOTO    PROCESO         ;NO ENTONCES VUELVE A PROCESO
0009   2???           00017     CALL    CONFIRMACION    ;SI VA A CONFIRMACION 
000A   2???           00018     CALL    DETECTAZ
000B   2???           00019     GOTO    PROCESO         ;VUELVE A PROCESO
                      00020     
000C                  00021 CONFIRMACION:
000C   1985           00022     BTFSC   PORTA,3         ;A3=0?
000D   2???           00023     GOTO    CONFIRMACION    ;NO ENTONCES VUEVLE A CONFIRMACION
000E   2???           00024     CALL    DISMINUIR       ;SI ENTONCES VA A DISMINUIR
000F   0008           00025     RETURN      
                      00026     
0010                  00027 DISMINUIR:
0010   3001           00028     MOVLW   D'1'            ;CARGAR EL VALOR DE RESTA 1 EN W
0011   0286           00029     SUBWF   PORTB,1         ;RESTA W - PORTB Y GUARDA EN PORTB
0012   0103           00030     CLRW
0013   0008           00031     RETURN
                      00032     
0014                  00033 DETECTAZ:
0014   30FF           00034     MOVLW   D'255'
0015   0206           00035     SUBWF   PORTB,0
0016   1D03           00036     BTFSS   STATUS,Z
0017   0008           00037     RETURN
0018   1C03           00038     BTFSS   STATUS,C
0019   0008           00039     RETURN
MPASM 5.87                          MAIN.ASM   6-3-2020  0:37:53         PAGE  2


LOC  OBJECT CODE     LINE SOURCE TEXT
  VALUE

001A   0103           00040     CLRW
001B   3009           00041     MOVLW   D'9'
001C   0086           00042     MOVWF   PORTB
001D   0008           00043     RETURN
                      00044 
Warning[205]: Found directive in column 1. (END)
                      00045 END
MPASM 5.87                          MAIN.ASM   6-3-2020  0:37:53         PAGE  3


SYMBOL TABLE
  LABEL                             VALUE 

C                                 00000000
CONFIRMACION                      0000000C
DC                                00000001
DETECTAZ                          00000014
DISMINUIR                         00000010
EEADR                             00000009
EECON1                            00000088
EECON2                            00000089
EEDATA                            00000008
EEIE                              00000006
EEIF                              00000004
F                                 00000001
FSR                               00000004
GIE                               00000007
INDF                              00000000
INTCON                            0000000B
INTE                              00000004
INTEDG                            00000006
INTF                              00000001
IRP                               00000007
NOT_PD                            00000003
NOT_RBPU                          00000007
NOT_TO                            00000004
OPTION_REG                        00000081
PCL                               00000002
PCLATH                            0000000A
PORTA                             00000005
PORTB                             00000006
PROCESO                           00000007
PS0                               00000000
PS1                               00000001
PS2                               00000002
PSA                               00000003
RA0                               00000000
RA1                               00000001
RA2                               00000002
RA3                               00000003
RA4                               00000004
RB0                               00000000
RB1                               00000001
RB2                               00000002
RB3                               00000003
RB4                               00000004
RB5                               00000005
RB6                               00000006
RB7                               00000007
RBIE                              00000003
RBIF                              00000000
RD                                00000000
RP0                               00000005
RP1                               00000006
STATUS                            00000003
T0CS                              00000005
MPASM 5.87                          MAIN.ASM   6-3-2020  0:37:53         PAGE  4


SYMBOL TABLE
  LABEL                             VALUE 

T0IE                              00000005
T0IF                              00000002
T0SE                              00000004
TMR0                              00000001
TMR0IE                            00000005
TMR0IF                            00000002
TRISA                             00000085
TRISA0                            00000000
TRISA1                            00000001
TRISA2                            00000002
TRISA3                            00000003
TRISA4                            00000004
TRISB                             00000086
TRISB0                            00000000
TRISB1                            00000001
TRISB2                            00000002
TRISB3                            00000003
TRISB4                            00000004
TRISB5                            00000005
TRISB6                            00000006
TRISB7                            00000007
W                                 00000000
WR                                00000001
WREN                              00000002
WRERR                             00000003
Z                                 00000002
_CONFIG                           00002007
_CP_OFF                           00003FFF
_CP_ON                            0000000F
_DEVID1                           00002006
_FOSC_EXTRC                       00003FFF
_FOSC_HS                          00003FFE
_FOSC_LP                          00003FFC
_FOSC_XT                          00003FFD
_HS_OSC                           00003FFE
_IDLOC0                           00002000
_IDLOC1                           00002001
_IDLOC2                           00002002
_IDLOC3                           00002003
_LP_OSC                           00003FFC
_PWRTE_OFF                        00003FFF
_PWRTE_ON                         00003FF7
_RC_OSC                           00003FFF
_WDTE_OFF                         00003FFB
_WDTE_ON                          00003FFF
_WDT_OFF                          00003FFB
_WDT_ON                           00003FFF
_XT_OSC                           00003FFD
__16F84A                          00000001

MPASM 5.87                          MAIN.ASM   6-3-2020  0:37:53         PAGE  5





Errors   :     0
Warnings :     3 reported,     0 suppressed
Messages :     2 reported,     0 suppressed

